
EP2.elf:     file format elf32-littlearm

Sections:
Idx Name          Size      VMA       LMA       File off  Algn
  0 .isr_vector   000000bc  08000000  08000000  00001000  2**0
                  CONTENTS, ALLOC, LOAD, READONLY, DATA
  1 .text         000013c4  080000bc  080000bc  000010bc  2**2
                  CONTENTS, ALLOC, LOAD, READONLY, CODE
  2 .rodata       00000040  08001480  08001480  00002480  2**2
                  CONTENTS, ALLOC, LOAD, READONLY, DATA
  3 .ARM.extab    00000000  080014c0  080014c0  0000300c  2**0
                  CONTENTS, READONLY
  4 .ARM          00000000  080014c0  080014c0  0000300c  2**0
                  CONTENTS, READONLY
  5 .preinit_array 00000000  080014c0  080014c0  0000300c  2**0
                  CONTENTS, ALLOC, LOAD, DATA
  6 .init_array   00000004  080014c0  080014c0  000024c0  2**2
                  CONTENTS, ALLOC, LOAD, READONLY, DATA
  7 .fini_array   00000004  080014c4  080014c4  000024c4  2**2
                  CONTENTS, ALLOC, LOAD, READONLY, DATA
  8 .data         0000000c  20000000  080014c8  00003000  2**2
                  CONTENTS, ALLOC, LOAD, DATA
  9 .bss          00000020  2000000c  080014d4  0000300c  2**2
                  ALLOC
 10 ._user_heap_stack 00000604  2000002c  080014d4  0000302c  2**0
                  ALLOC
 11 .ARM.attributes 00000028  00000000  00000000  0000300c  2**0
                  CONTENTS, READONLY
 12 .debug_info   00003a58  00000000  00000000  00003034  2**0
                  CONTENTS, READONLY, DEBUGGING, OCTETS
 13 .debug_abbrev 000011be  00000000  00000000  00006a8c  2**0
                  CONTENTS, READONLY, DEBUGGING, OCTETS
 14 .debug_aranges 000004f8  00000000  00000000  00007c50  2**3
                  CONTENTS, READONLY, DEBUGGING, OCTETS
 15 .debug_rnglists 00000395  00000000  00000000  00008148  2**0
                  CONTENTS, READONLY, DEBUGGING, OCTETS
 16 .debug_macro  000161d7  00000000  00000000  000084dd  2**0
                  CONTENTS, READONLY, DEBUGGING, OCTETS
 17 .debug_line   00005be8  00000000  00000000  0001e6b4  2**0
                  CONTENTS, READONLY, DEBUGGING, OCTETS
 18 .debug_str    0008c772  00000000  00000000  0002429c  2**0
                  CONTENTS, READONLY, DEBUGGING, OCTETS
 19 .comment      00000043  00000000  00000000  000b0a0e  2**0
                  CONTENTS, READONLY
 20 .debug_frame  00000fa4  00000000  00000000  000b0a54  2**2
                  CONTENTS, READONLY, DEBUGGING, OCTETS
 21 .debug_line_str 00000067  00000000  00000000  000b19f8  2**0
                  CONTENTS, READONLY, DEBUGGING, OCTETS

Disassembly of section .text:

080000bc <__do_global_dtors_aux>:
 80000bc:	b510      	push	{r4, lr}
 80000be:	4c06      	ldr	r4, [pc, #24]	@ (80000d8 <__do_global_dtors_aux+0x1c>)
 80000c0:	7823      	ldrb	r3, [r4, #0]
 80000c2:	2b00      	cmp	r3, #0
 80000c4:	d107      	bne.n	80000d6 <__do_global_dtors_aux+0x1a>
 80000c6:	4b05      	ldr	r3, [pc, #20]	@ (80000dc <__do_global_dtors_aux+0x20>)
 80000c8:	2b00      	cmp	r3, #0
 80000ca:	d002      	beq.n	80000d2 <__do_global_dtors_aux+0x16>
 80000cc:	4804      	ldr	r0, [pc, #16]	@ (80000e0 <__do_global_dtors_aux+0x24>)
 80000ce:	e000      	b.n	80000d2 <__do_global_dtors_aux+0x16>
 80000d0:	bf00      	nop
 80000d2:	2301      	movs	r3, #1
 80000d4:	7023      	strb	r3, [r4, #0]
 80000d6:	bd10      	pop	{r4, pc}
 80000d8:	2000000c 	.word	0x2000000c
 80000dc:	00000000 	.word	0x00000000
 80000e0:	08001468 	.word	0x08001468

080000e4 <frame_dummy>:
 80000e4:	4b04      	ldr	r3, [pc, #16]	@ (80000f8 <frame_dummy+0x14>)
 80000e6:	b510      	push	{r4, lr}
 80000e8:	2b00      	cmp	r3, #0
 80000ea:	d003      	beq.n	80000f4 <frame_dummy+0x10>
 80000ec:	4903      	ldr	r1, [pc, #12]	@ (80000fc <frame_dummy+0x18>)
 80000ee:	4804      	ldr	r0, [pc, #16]	@ (8000100 <frame_dummy+0x1c>)
 80000f0:	e000      	b.n	80000f4 <frame_dummy+0x10>
 80000f2:	bf00      	nop
 80000f4:	bd10      	pop	{r4, pc}
 80000f6:	46c0      	nop			@ (mov r8, r8)
 80000f8:	00000000 	.word	0x00000000
 80000fc:	20000010 	.word	0x20000010
 8000100:	08001468 	.word	0x08001468

08000104 <__udivsi3>:
 8000104:	2200      	movs	r2, #0
 8000106:	0843      	lsrs	r3, r0, #1
 8000108:	428b      	cmp	r3, r1
 800010a:	d374      	bcc.n	80001f6 <__udivsi3+0xf2>
 800010c:	0903      	lsrs	r3, r0, #4
 800010e:	428b      	cmp	r3, r1
 8000110:	d35f      	bcc.n	80001d2 <__udivsi3+0xce>
 8000112:	0a03      	lsrs	r3, r0, #8
 8000114:	428b      	cmp	r3, r1
 8000116:	d344      	bcc.n	80001a2 <__udivsi3+0x9e>
 8000118:	0b03      	lsrs	r3, r0, #12
 800011a:	428b      	cmp	r3, r1
 800011c:	d328      	bcc.n	8000170 <__udivsi3+0x6c>
 800011e:	0c03      	lsrs	r3, r0, #16
 8000120:	428b      	cmp	r3, r1
 8000122:	d30d      	bcc.n	8000140 <__udivsi3+0x3c>
 8000124:	22ff      	movs	r2, #255	@ 0xff
 8000126:	0209      	lsls	r1, r1, #8
 8000128:	ba12      	rev	r2, r2
 800012a:	0c03      	lsrs	r3, r0, #16
 800012c:	428b      	cmp	r3, r1
 800012e:	d302      	bcc.n	8000136 <__udivsi3+0x32>
 8000130:	1212      	asrs	r2, r2, #8
 8000132:	0209      	lsls	r1, r1, #8
 8000134:	d065      	beq.n	8000202 <__udivsi3+0xfe>
 8000136:	0b03      	lsrs	r3, r0, #12
 8000138:	428b      	cmp	r3, r1
 800013a:	d319      	bcc.n	8000170 <__udivsi3+0x6c>
 800013c:	e000      	b.n	8000140 <__udivsi3+0x3c>
 800013e:	0a09      	lsrs	r1, r1, #8
 8000140:	0bc3      	lsrs	r3, r0, #15
 8000142:	428b      	cmp	r3, r1
 8000144:	d301      	bcc.n	800014a <__udivsi3+0x46>
 8000146:	03cb      	lsls	r3, r1, #15
 8000148:	1ac0      	subs	r0, r0, r3
 800014a:	4152      	adcs	r2, r2
 800014c:	0b83      	lsrs	r3, r0, #14
 800014e:	428b      	cmp	r3, r1
 8000150:	d301      	bcc.n	8000156 <__udivsi3+0x52>
 8000152:	038b      	lsls	r3, r1, #14
 8000154:	1ac0      	subs	r0, r0, r3
 8000156:	4152      	adcs	r2, r2
 8000158:	0b43      	lsrs	r3, r0, #13
 800015a:	428b      	cmp	r3, r1
 800015c:	d301      	bcc.n	8000162 <__udivsi3+0x5e>
 800015e:	034b      	lsls	r3, r1, #13
 8000160:	1ac0      	subs	r0, r0, r3
 8000162:	4152      	adcs	r2, r2
 8000164:	0b03      	lsrs	r3, r0, #12
 8000166:	428b      	cmp	r3, r1
 8000168:	d301      	bcc.n	800016e <__udivsi3+0x6a>
 800016a:	030b      	lsls	r3, r1, #12
 800016c:	1ac0      	subs	r0, r0, r3
 800016e:	4152      	adcs	r2, r2
 8000170:	0ac3      	lsrs	r3, r0, #11
 8000172:	428b      	cmp	r3, r1
 8000174:	d301      	bcc.n	800017a <__udivsi3+0x76>
 8000176:	02cb      	lsls	r3, r1, #11
 8000178:	1ac0      	subs	r0, r0, r3
 800017a:	4152      	adcs	r2, r2
 800017c:	0a83      	lsrs	r3, r0, #10
 800017e:	428b      	cmp	r3, r1
 8000180:	d301      	bcc.n	8000186 <__udivsi3+0x82>
 8000182:	028b      	lsls	r3, r1, #10
 8000184:	1ac0      	subs	r0, r0, r3
 8000186:	4152      	adcs	r2, r2
 8000188:	0a43      	lsrs	r3, r0, #9
 800018a:	428b      	cmp	r3, r1
 800018c:	d301      	bcc.n	8000192 <__udivsi3+0x8e>
 800018e:	024b      	lsls	r3, r1, #9
 8000190:	1ac0      	subs	r0, r0, r3
 8000192:	4152      	adcs	r2, r2
 8000194:	0a03      	lsrs	r3, r0, #8
 8000196:	428b      	cmp	r3, r1
 8000198:	d301      	bcc.n	800019e <__udivsi3+0x9a>
 800019a:	020b      	lsls	r3, r1, #8
 800019c:	1ac0      	subs	r0, r0, r3
 800019e:	4152      	adcs	r2, r2
 80001a0:	d2cd      	bcs.n	800013e <__udivsi3+0x3a>
 80001a2:	09c3      	lsrs	r3, r0, #7
 80001a4:	428b      	cmp	r3, r1
 80001a6:	d301      	bcc.n	80001ac <__udivsi3+0xa8>
 80001a8:	01cb      	lsls	r3, r1, #7
 80001aa:	1ac0      	subs	r0, r0, r3
 80001ac:	4152      	adcs	r2, r2
 80001ae:	0983      	lsrs	r3, r0, #6
 80001b0:	428b      	cmp	r3, r1
 80001b2:	d301      	bcc.n	80001b8 <__udivsi3+0xb4>
 80001b4:	018b      	lsls	r3, r1, #6
 80001b6:	1ac0      	subs	r0, r0, r3
 80001b8:	4152      	adcs	r2, r2
 80001ba:	0943      	lsrs	r3, r0, #5
 80001bc:	428b      	cmp	r3, r1
 80001be:	d301      	bcc.n	80001c4 <__udivsi3+0xc0>
 80001c0:	014b      	lsls	r3, r1, #5
 80001c2:	1ac0      	subs	r0, r0, r3
 80001c4:	4152      	adcs	r2, r2
 80001c6:	0903      	lsrs	r3, r0, #4
 80001c8:	428b      	cmp	r3, r1
 80001ca:	d301      	bcc.n	80001d0 <__udivsi3+0xcc>
 80001cc:	010b      	lsls	r3, r1, #4
 80001ce:	1ac0      	subs	r0, r0, r3
 80001d0:	4152      	adcs	r2, r2
 80001d2:	08c3      	lsrs	r3, r0, #3
 80001d4:	428b      	cmp	r3, r1
 80001d6:	d301      	bcc.n	80001dc <__udivsi3+0xd8>
 80001d8:	00cb      	lsls	r3, r1, #3
 80001da:	1ac0      	subs	r0, r0, r3
 80001dc:	4152      	adcs	r2, r2
 80001de:	0883      	lsrs	r3, r0, #2
 80001e0:	428b      	cmp	r3, r1
 80001e2:	d301      	bcc.n	80001e8 <__udivsi3+0xe4>
 80001e4:	008b      	lsls	r3, r1, #2
 80001e6:	1ac0      	subs	r0, r0, r3
 80001e8:	4152      	adcs	r2, r2
 80001ea:	0843      	lsrs	r3, r0, #1
 80001ec:	428b      	cmp	r3, r1
 80001ee:	d301      	bcc.n	80001f4 <__udivsi3+0xf0>
 80001f0:	004b      	lsls	r3, r1, #1
 80001f2:	1ac0      	subs	r0, r0, r3
 80001f4:	4152      	adcs	r2, r2
 80001f6:	1a41      	subs	r1, r0, r1
 80001f8:	d200      	bcs.n	80001fc <__udivsi3+0xf8>
 80001fa:	4601      	mov	r1, r0
 80001fc:	4152      	adcs	r2, r2
 80001fe:	4610      	mov	r0, r2
 8000200:	4770      	bx	lr
 8000202:	e7ff      	b.n	8000204 <__udivsi3+0x100>
 8000204:	b501      	push	{r0, lr}
 8000206:	2000      	movs	r0, #0
 8000208:	f000 f806 	bl	8000218 <__aeabi_idiv0>
 800020c:	bd02      	pop	{r1, pc}
 800020e:	46c0      	nop			@ (mov r8, r8)

08000210 <__aeabi_uidivmod>:
 8000210:	2900      	cmp	r1, #0
 8000212:	d0f7      	beq.n	8000204 <__udivsi3+0x100>
 8000214:	e776      	b.n	8000104 <__udivsi3>
 8000216:	4770      	bx	lr

08000218 <__aeabi_idiv0>:
 8000218:	4770      	bx	lr
 800021a:	46c0      	nop			@ (mov r8, r8)

0800021c <MX_GPIO_Init>:
/* USER CODE END 1 */

/** Configure pins
*/
void MX_GPIO_Init(void)
{
 800021c:	b580      	push	{r7, lr}
 800021e:	b086      	sub	sp, #24
 8000220:	af00      	add	r7, sp, #0

  GPIO_InitTypeDef GPIO_InitStruct = {0};
 8000222:	1d3b      	adds	r3, r7, #4
 8000224:	0018      	movs	r0, r3
 8000226:	2314      	movs	r3, #20
 8000228:	001a      	movs	r2, r3
 800022a:	2100      	movs	r1, #0
 800022c:	f001 f8f0 	bl	8001410 <memset>

  /* GPIO Ports Clock Enable */
  __HAL_RCC_GPIOA_CLK_ENABLE();
 8000230:	4b14      	ldr	r3, [pc, #80]	@ (8000284 <MX_GPIO_Init+0x68>)
 8000232:	6b5a      	ldr	r2, [r3, #52]	@ 0x34
 8000234:	4b13      	ldr	r3, [pc, #76]	@ (8000284 <MX_GPIO_Init+0x68>)
 8000236:	2101      	movs	r1, #1
 8000238:	430a      	orrs	r2, r1
 800023a:	635a      	str	r2, [r3, #52]	@ 0x34
 800023c:	4b11      	ldr	r3, [pc, #68]	@ (8000284 <MX_GPIO_Init+0x68>)
 800023e:	6b5b      	ldr	r3, [r3, #52]	@ 0x34
 8000240:	2201      	movs	r2, #1
 8000242:	4013      	ands	r3, r2
 8000244:	603b      	str	r3, [r7, #0]
 8000246:	683b      	ldr	r3, [r7, #0]

  /*Configure GPIO pin Output Level */
  HAL_GPIO_WritePin(GREEN_LED_GPIO_Port, GREEN_LED_Pin, GPIO_PIN_RESET);
 8000248:	23a0      	movs	r3, #160	@ 0xa0
 800024a:	05db      	lsls	r3, r3, #23
 800024c:	2200      	movs	r2, #0
 800024e:	2120      	movs	r1, #32
 8000250:	0018      	movs	r0, r3
 8000252:	f000 fbc1 	bl	80009d8 <HAL_GPIO_WritePin>

  /*Configure GPIO pin : GREEN_LED_Pin */
  GPIO_InitStruct.Pin = GREEN_LED_Pin;
 8000256:	1d3b      	adds	r3, r7, #4
 8000258:	2220      	movs	r2, #32
 800025a:	601a      	str	r2, [r3, #0]
  GPIO_InitStruct.Mode = GPIO_MODE_OUTPUT_PP;
 800025c:	1d3b      	adds	r3, r7, #4
 800025e:	2201      	movs	r2, #1
 8000260:	605a      	str	r2, [r3, #4]
  GPIO_InitStruct.Pull = GPIO_NOPULL;
 8000262:	1d3b      	adds	r3, r7, #4
 8000264:	2200      	movs	r2, #0
 8000266:	609a      	str	r2, [r3, #8]
  GPIO_InitStruct.Speed = GPIO_SPEED_FREQ_LOW;
 8000268:	1d3b      	adds	r3, r7, #4
 800026a:	2200      	movs	r2, #0
 800026c:	60da      	str	r2, [r3, #12]
  HAL_GPIO_Init(GREEN_LED_GPIO_Port, &GPIO_InitStruct);
 800026e:	1d3a      	adds	r2, r7, #4
 8000270:	23a0      	movs	r3, #160	@ 0xa0
 8000272:	05db      	lsls	r3, r3, #23
 8000274:	0011      	movs	r1, r2
 8000276:	0018      	movs	r0, r3
 8000278:	f000 fa4a 	bl	8000710 <HAL_GPIO_Init>

}
 800027c:	46c0      	nop			@ (mov r8, r8)
 800027e:	46bd      	mov	sp, r7
 8000280:	b006      	add	sp, #24
 8000282:	bd80      	pop	{r7, pc}
 8000284:	40021000 	.word	0x40021000

08000288 <main>:
/**
  * @brief  The application entry point.
  * @retval int
  */
int main(void)
{
 8000288:	b580      	push	{r7, lr}
 800028a:	af00      	add	r7, sp, #0
  /* USER CODE END 1 */

  /* MCU Configuration--------------------------------------------------------*/

  /* Reset of all peripherals, Initializes the Flash interface and the Systick. */
  HAL_Init();
 800028c:	f000 f8e2 	bl	8000454 <HAL_Init>
  /* USER CODE BEGIN Init */

  /* USER CODE END Init */

  /* Configure the system clock */
  SystemClock_Config();
 8000290:	f000 f80f 	bl	80002b2 <SystemClock_Config>
  /* USER CODE BEGIN SysInit */

  /* USER CODE END SysInit */

  /* Initialize all configured peripherals */
  MX_GPIO_Init();
 8000294:	f7ff ffc2 	bl	800021c <MX_GPIO_Init>
  while (1)
  {
    /* USER CODE END WHILE */

    /* USER CODE BEGIN 3 */
	  HAL_GPIO_TogglePin(GREEN_LED_GPIO_Port, GREEN_LED_Pin);
 8000298:	23a0      	movs	r3, #160	@ 0xa0
 800029a:	05db      	lsls	r3, r3, #23
 800029c:	2120      	movs	r1, #32
 800029e:	0018      	movs	r0, r3
 80002a0:	f000 fbb7 	bl	8000a12 <HAL_GPIO_TogglePin>
	  HAL_Delay(500);
 80002a4:	23fa      	movs	r3, #250	@ 0xfa
 80002a6:	005b      	lsls	r3, r3, #1
 80002a8:	0018      	movs	r0, r3
 80002aa:	f000 f959 	bl	8000560 <HAL_Delay>
	  HAL_GPIO_TogglePin(GREEN_LED_GPIO_Port, GREEN_LED_Pin);
 80002ae:	46c0      	nop			@ (mov r8, r8)
 80002b0:	e7f2      	b.n	8000298 <main+0x10>

080002b2 <SystemClock_Config>:
/**
  * @brief System Clock Configuration
  * @retval None
  */
void SystemClock_Config(void)
{
 80002b2:	b590      	push	{r4, r7, lr}
 80002b4:	b093      	sub	sp, #76	@ 0x4c
 80002b6:	af00      	add	r7, sp, #0
  RCC_OscInitTypeDef RCC_OscInitStruct = {0};
 80002b8:	2410      	movs	r4, #16
 80002ba:	193b      	adds	r3, r7, r4
 80002bc:	0018      	movs	r0, r3
 80002be:	2338      	movs	r3, #56	@ 0x38
 80002c0:	001a      	movs	r2, r3
 80002c2:	2100      	movs	r1, #0
 80002c4:	f001 f8a4 	bl	8001410 <memset>
  RCC_ClkInitTypeDef RCC_ClkInitStruct = {0};
 80002c8:	003b      	movs	r3, r7
 80002ca:	0018      	movs	r0, r3
 80002cc:	2310      	movs	r3, #16
 80002ce:	001a      	movs	r2, r3
 80002d0:	2100      	movs	r1, #0
 80002d2:	f001 f89d 	bl	8001410 <memset>

  /** Configure the main internal regulator output voltage
  */
  HAL_PWREx_ControlVoltageScaling(PWR_REGULATOR_VOLTAGE_SCALE1);
 80002d6:	2380      	movs	r3, #128	@ 0x80
 80002d8:	009b      	lsls	r3, r3, #2
 80002da:	0018      	movs	r0, r3
 80002dc:	f000 fbb4 	bl	8000a48 <HAL_PWREx_ControlVoltageScaling>

  /** Initializes the RCC Oscillators according to the specified parameters
  * in the RCC_OscInitTypeDef structure.
  */
  RCC_OscInitStruct.OscillatorType = RCC_OSCILLATORTYPE_HSI;
 80002e0:	193b      	adds	r3, r7, r4
 80002e2:	2202      	movs	r2, #2
 80002e4:	601a      	str	r2, [r3, #0]
  RCC_OscInitStruct.HSIState = RCC_HSI_ON;
 80002e6:	193b      	adds	r3, r7, r4
 80002e8:	2280      	movs	r2, #128	@ 0x80
 80002ea:	0052      	lsls	r2, r2, #1
 80002ec:	60da      	str	r2, [r3, #12]
  RCC_OscInitStruct.HSIDiv = RCC_HSI_DIV1;
 80002ee:	0021      	movs	r1, r4
 80002f0:	187b      	adds	r3, r7, r1
 80002f2:	2200      	movs	r2, #0
 80002f4:	611a      	str	r2, [r3, #16]
  RCC_OscInitStruct.HSICalibrationValue = RCC_HSICALIBRATION_DEFAULT;
 80002f6:	187b      	adds	r3, r7, r1
 80002f8:	2240      	movs	r2, #64	@ 0x40
 80002fa:	615a      	str	r2, [r3, #20]
  RCC_OscInitStruct.PLL.PLLState = RCC_PLL_ON;
 80002fc:	187b      	adds	r3, r7, r1
 80002fe:	2202      	movs	r2, #2
 8000300:	61da      	str	r2, [r3, #28]
  RCC_OscInitStruct.PLL.PLLSource = RCC_PLLSOURCE_HSI;
 8000302:	187b      	adds	r3, r7, r1
 8000304:	2202      	movs	r2, #2
 8000306:	621a      	str	r2, [r3, #32]
  RCC_OscInitStruct.PLL.PLLM = RCC_PLLM_DIV1;
 8000308:	187b      	adds	r3, r7, r1
 800030a:	2200      	movs	r2, #0
 800030c:	625a      	str	r2, [r3, #36]	@ 0x24
  RCC_OscInitStruct.PLL.PLLN = 8;
 800030e:	187b      	adds	r3, r7, r1
 8000310:	2208      	movs	r2, #8
 8000312:	629a      	str	r2, [r3, #40]	@ 0x28
  RCC_OscInitStruct.PLL.PLLP = RCC_PLLP_DIV2;
 8000314:	187b      	adds	r3, r7, r1
 8000316:	2280      	movs	r2, #128	@ 0x80
 8000318:	0292      	lsls	r2, r2, #10
 800031a:	62da      	str	r2, [r3, #44]	@ 0x2c
  RCC_OscInitStruct.PLL.PLLQ = RCC_PLLQ_DIV2;
 800031c:	187b      	adds	r3, r7, r1
 800031e:	2280      	movs	r2, #128	@ 0x80
 8000320:	0492      	lsls	r2, r2, #18
 8000322:	631a      	str	r2, [r3, #48]	@ 0x30
  RCC_OscInitStruct.PLL.PLLR = RCC_PLLR_DIV2;
 8000324:	187b      	adds	r3, r7, r1
 8000326:	2280      	movs	r2, #128	@ 0x80
 8000328:	0592      	lsls	r2, r2, #22
 800032a:	635a      	str	r2, [r3, #52]	@ 0x34
  if (HAL_RCC_OscConfig(&RCC_OscInitStruct) != HAL_OK)
 800032c:	187b      	adds	r3, r7, r1
 800032e:	0018      	movs	r0, r3
 8000330:	f000 fbca 	bl	8000ac8 <HAL_RCC_OscConfig>
 8000334:	1e03      	subs	r3, r0, #0
 8000336:	d001      	beq.n	800033c <SystemClock_Config+0x8a>
  {
    Error_Handler();
 8000338:	f000 f819 	bl	800036e <Error_Handler>
  }

  /** Initializes the CPU, AHB and APB buses clocks
  */
  RCC_ClkInitStruct.ClockType = RCC_CLOCKTYPE_HCLK|RCC_CLOCKTYPE_SYSCLK
 800033c:	003b      	movs	r3, r7
 800033e:	2207      	movs	r2, #7
 8000340:	601a      	str	r2, [r3, #0]
                              |RCC_CLOCKTYPE_PCLK1;
  RCC_ClkInitStruct.SYSCLKSource = RCC_SYSCLKSOURCE_PLLCLK;
 8000342:	003b      	movs	r3, r7
 8000344:	2202      	movs	r2, #2
 8000346:	605a      	str	r2, [r3, #4]
  RCC_ClkInitStruct.AHBCLKDivider = RCC_SYSCLK_DIV1;
 8000348:	003b      	movs	r3, r7
 800034a:	2200      	movs	r2, #0
 800034c:	609a      	str	r2, [r3, #8]
  RCC_ClkInitStruct.APB1CLKDivider = RCC_HCLK_DIV1;
 800034e:	003b      	movs	r3, r7
 8000350:	2200      	movs	r2, #0
 8000352:	60da      	str	r2, [r3, #12]

  if (HAL_RCC_ClockConfig(&RCC_ClkInitStruct, FLASH_LATENCY_2) != HAL_OK)
 8000354:	003b      	movs	r3, r7
 8000356:	2102      	movs	r1, #2
 8000358:	0018      	movs	r0, r3
 800035a:	f000 fecf 	bl	80010fc <HAL_RCC_ClockConfig>
 800035e:	1e03      	subs	r3, r0, #0
 8000360:	d001      	beq.n	8000366 <SystemClock_Config+0xb4>
  {
    Error_Handler();
 8000362:	f000 f804 	bl	800036e <Error_Handler>
  }
}
 8000366:	46c0      	nop			@ (mov r8, r8)
 8000368:	46bd      	mov	sp, r7
 800036a:	b013      	add	sp, #76	@ 0x4c
 800036c:	bd90      	pop	{r4, r7, pc}

0800036e <Error_Handler>:
/**
  * @brief  This function is executed in case of error occurrence.
  * @retval None
  */
void Error_Handler(void)
{
 800036e:	b580      	push	{r7, lr}
 8000370:	af00      	add	r7, sp, #0
  \details Disables IRQ interrupts by setting the I-bit in the CPSR.
           Can only be executed in Privileged modes.
 */
__STATIC_FORCEINLINE void __disable_irq(void)
{
  __ASM volatile ("cpsid i" : : : "memory");
 8000372:	b672      	cpsid	i
}
 8000374:	46c0      	nop			@ (mov r8, r8)
  /* USER CODE BEGIN Error_Handler_Debug */
  /* User can add his own implementation to report the HAL error return state */
  __disable_irq();
  while (1)
 8000376:	46c0      	nop			@ (mov r8, r8)
 8000378:	e7fd      	b.n	8000376 <Error_Handler+0x8>
	...

0800037c <HAL_MspInit>:
/* USER CODE END 0 */
/**
  * Initializes the Global MSP.
  */
void HAL_MspInit(void)
{
 800037c:	b580      	push	{r7, lr}
 800037e:	b082      	sub	sp, #8
 8000380:	af00      	add	r7, sp, #0

  /* USER CODE BEGIN MspInit 0 */

  /* USER CODE END MspInit 0 */

  __HAL_RCC_SYSCFG_CLK_ENABLE();
 8000382:	4b0f      	ldr	r3, [pc, #60]	@ (80003c0 <HAL_MspInit+0x44>)
 8000384:	6c1a      	ldr	r2, [r3, #64]	@ 0x40
 8000386:	4b0e      	ldr	r3, [pc, #56]	@ (80003c0 <HAL_MspInit+0x44>)
 8000388:	2101      	movs	r1, #1
 800038a:	430a      	orrs	r2, r1
 800038c:	641a      	str	r2, [r3, #64]	@ 0x40
 800038e:	4b0c      	ldr	r3, [pc, #48]	@ (80003c0 <HAL_MspInit+0x44>)
 8000390:	6c1b      	ldr	r3, [r3, #64]	@ 0x40
 8000392:	2201      	movs	r2, #1
 8000394:	4013      	ands	r3, r2
 8000396:	607b      	str	r3, [r7, #4]
 8000398:	687b      	ldr	r3, [r7, #4]
  __HAL_RCC_PWR_CLK_ENABLE();
 800039a:	4b09      	ldr	r3, [pc, #36]	@ (80003c0 <HAL_MspInit+0x44>)
 800039c:	6bda      	ldr	r2, [r3, #60]	@ 0x3c
 800039e:	4b08      	ldr	r3, [pc, #32]	@ (80003c0 <HAL_MspInit+0x44>)
 80003a0:	2180      	movs	r1, #128	@ 0x80
 80003a2:	0549      	lsls	r1, r1, #21
 80003a4:	430a      	orrs	r2, r1
 80003a6:	63da      	str	r2, [r3, #60]	@ 0x3c
 80003a8:	4b05      	ldr	r3, [pc, #20]	@ (80003c0 <HAL_MspInit+0x44>)
 80003aa:	6bda      	ldr	r2, [r3, #60]	@ 0x3c
 80003ac:	2380      	movs	r3, #128	@ 0x80
 80003ae:	055b      	lsls	r3, r3, #21
 80003b0:	4013      	ands	r3, r2
 80003b2:	603b      	str	r3, [r7, #0]
 80003b4:	683b      	ldr	r3, [r7, #0]
  /* System interrupt init*/

  /* USER CODE BEGIN MspInit 1 */

  /* USER CODE END MspInit 1 */
}
 80003b6:	46c0      	nop			@ (mov r8, r8)
 80003b8:	46bd      	mov	sp, r7
 80003ba:	b002      	add	sp, #8
 80003bc:	bd80      	pop	{r7, pc}
 80003be:	46c0      	nop			@ (mov r8, r8)
 80003c0:	40021000 	.word	0x40021000

080003c4 <NMI_Handler>:
/******************************************************************************/
/**
  * @brief This function handles Non maskable interrupt.
  */
void NMI_Handler(void)
{
 80003c4:	b580      	push	{r7, lr}
 80003c6:	af00      	add	r7, sp, #0
  /* USER CODE BEGIN NonMaskableInt_IRQn 0 */

  /* USER CODE END NonMaskableInt_IRQn 0 */
  /* USER CODE BEGIN NonMaskableInt_IRQn 1 */
   while (1)
 80003c8:	46c0      	nop			@ (mov r8, r8)
 80003ca:	e7fd      	b.n	80003c8 <NMI_Handler+0x4>

080003cc <HardFault_Handler>:

/**
  * @brief This function handles Hard fault interrupt.
  */
void HardFault_Handler(void)
{
 80003cc:	b580      	push	{r7, lr}
 80003ce:	af00      	add	r7, sp, #0
  /* USER CODE BEGIN HardFault_IRQn 0 */

  /* USER CODE END HardFault_IRQn 0 */
  while (1)
 80003d0:	46c0      	nop			@ (mov r8, r8)
 80003d2:	e7fd      	b.n	80003d0 <HardFault_Handler+0x4>

080003d4 <SVC_Handler>:

/**
  * @brief This function handles System service call via SWI instruction.
  */
void SVC_Handler(void)
{
 80003d4:	b580      	push	{r7, lr}
 80003d6:	af00      	add	r7, sp, #0

  /* USER CODE END SVC_IRQn 0 */
  /* USER CODE BEGIN SVC_IRQn 1 */

  /* USER CODE END SVC_IRQn 1 */
}
 80003d8:	46c0      	nop			@ (mov r8, r8)
 80003da:	46bd      	mov	sp, r7
 80003dc:	bd80      	pop	{r7, pc}

080003de <PendSV_Handler>:

/**
  * @brief This function handles Pendable request for system service.
  */
void PendSV_Handler(void)
{
 80003de:	b580      	push	{r7, lr}
 80003e0:	af00      	add	r7, sp, #0

  /* USER CODE END PendSV_IRQn 0 */
  /* USER CODE BEGIN PendSV_IRQn 1 */

  /* USER CODE END PendSV_IRQn 1 */
}
 80003e2:	46c0      	nop			@ (mov r8, r8)
 80003e4:	46bd      	mov	sp, r7
 80003e6:	bd80      	pop	{r7, pc}

080003e8 <SysTick_Handler>:

/**
  * @brief This function handles System tick timer.
  */
void SysTick_Handler(void)
{
 80003e8:	b580      	push	{r7, lr}
 80003ea:	af00      	add	r7, sp, #0
  /* USER CODE BEGIN SysTick_IRQn 0 */

  /* USER CODE END SysTick_IRQn 0 */
  HAL_IncTick();
 80003ec:	f000 f89c 	bl	8000528 <HAL_IncTick>
  /* USER CODE BEGIN SysTick_IRQn 1 */

  /* USER CODE END SysTick_IRQn 1 */
}
 80003f0:	46c0      	nop			@ (mov r8, r8)
 80003f2:	46bd      	mov	sp, r7
 80003f4:	bd80      	pop	{r7, pc}
	...

080003f8 <Reset_Handler>:

  .section .text.Reset_Handler
  .weak Reset_Handler
  .type Reset_Handler, %function
Reset_Handler:
  ldr   r0, =_estack
 80003f8:	480d      	ldr	r0, [pc, #52]	@ (8000430 <LoopForever+0x2>)
  mov   sp, r0          /* set stack pointer */
 80003fa:	4685      	mov	sp, r0

/* Call the clock system initialization function.*/
  bl  SystemInit
 80003fc:	f000 f825 	bl	800044a <SystemInit>

/* Copy the data segment initializers from flash to SRAM */
  ldr r0, =_sdata
 8000400:	480c      	ldr	r0, [pc, #48]	@ (8000434 <LoopForever+0x6>)
  ldr r1, =_edata
 8000402:	490d      	ldr	r1, [pc, #52]	@ (8000438 <LoopForever+0xa>)
  ldr r2, =_sidata
 8000404:	4a0d      	ldr	r2, [pc, #52]	@ (800043c <LoopForever+0xe>)
  movs r3, #0
 8000406:	2300      	movs	r3, #0
  b LoopCopyDataInit
 8000408:	e002      	b.n	8000410 <LoopCopyDataInit>

0800040a <CopyDataInit>:

CopyDataInit:
  ldr r4, [r2, r3]
 800040a:	58d4      	ldr	r4, [r2, r3]
  str r4, [r0, r3]
 800040c:	50c4      	str	r4, [r0, r3]
  adds r3, r3, #4
 800040e:	3304      	adds	r3, #4

08000410 <LoopCopyDataInit>:

LoopCopyDataInit:
  adds r4, r0, r3
 8000410:	18c4      	adds	r4, r0, r3
  cmp r4, r1
 8000412:	428c      	cmp	r4, r1
  bcc CopyDataInit
 8000414:	d3f9      	bcc.n	800040a <CopyDataInit>

/* Zero fill the bss segment. */
  ldr r2, =_sbss
 8000416:	4a0a      	ldr	r2, [pc, #40]	@ (8000440 <LoopForever+0x12>)
  ldr r4, =_ebss
 8000418:	4c0a      	ldr	r4, [pc, #40]	@ (8000444 <LoopForever+0x16>)
  movs r3, #0
 800041a:	2300      	movs	r3, #0
  b LoopFillZerobss
 800041c:	e001      	b.n	8000422 <LoopFillZerobss>

0800041e <FillZerobss>:

FillZerobss:
  str  r3, [r2]
 800041e:	6013      	str	r3, [r2, #0]
  adds r2, r2, #4
 8000420:	3204      	adds	r2, #4

08000422 <LoopFillZerobss>:

LoopFillZerobss:
  cmp r2, r4
 8000422:	42a2      	cmp	r2, r4
  bcc FillZerobss
 8000424:	d3fb      	bcc.n	800041e <FillZerobss>

/* Call static constructors */
  bl __libc_init_array
 8000426:	f000 fffb 	bl	8001420 <__libc_init_array>
/* Call the application s entry point.*/
  bl main
 800042a:	f7ff ff2d 	bl	8000288 <main>

0800042e <LoopForever>:

LoopForever:
  b LoopForever
 800042e:	e7fe      	b.n	800042e <LoopForever>
  ldr   r0, =_estack
 8000430:	20009000 	.word	0x20009000
  ldr r0, =_sdata
 8000434:	20000000 	.word	0x20000000
  ldr r1, =_edata
 8000438:	2000000c 	.word	0x2000000c
  ldr r2, =_sidata
 800043c:	080014c8 	.word	0x080014c8
  ldr r2, =_sbss
 8000440:	2000000c 	.word	0x2000000c
  ldr r4, =_ebss
 8000444:	2000002c 	.word	0x2000002c

08000448 <ADC1_COMP_IRQHandler>:
 * @retval None
*/
  .section .text.Default_Handler,"ax",%progbits
Default_Handler:
Infinite_Loop:
  b Infinite_Loop
 8000448:	e7fe      	b.n	8000448 <ADC1_COMP_IRQHandler>

0800044a <SystemInit>:
  * @brief  Setup the microcontroller system.
  * @param  None
  * @retval None
  */
void SystemInit(void)
{
 800044a:	b580      	push	{r7, lr}
 800044c:	af00      	add	r7, sp, #0
  /* Configure the Vector Table location -------------------------------------*/
#if defined(USER_VECT_TAB_ADDRESS)
  SCB->VTOR = VECT_TAB_BASE_ADDRESS | VECT_TAB_OFFSET; /* Vector Table Relocation */
#endif /* USER_VECT_TAB_ADDRESS */
}
 800044e:	46c0      	nop			@ (mov r8, r8)
 8000450:	46bd      	mov	sp, r7
 8000452:	bd80      	pop	{r7, pc}

08000454 <HAL_Init>:
  *         each 1ms in the SysTick_Handler() interrupt handler.
  *
  * @retval HAL status
  */
HAL_StatusTypeDef HAL_Init(void)
{
 8000454:	b580      	push	{r7, lr}
 8000456:	b082      	sub	sp, #8
 8000458:	af00      	add	r7, sp, #0
  HAL_StatusTypeDef  status = HAL_OK;
 800045a:	1dfb      	adds	r3, r7, #7
 800045c:	2200      	movs	r2, #0
 800045e:	701a      	strb	r2, [r3, #0]
#if (INSTRUCTION_CACHE_ENABLE == 0U)
  __HAL_FLASH_INSTRUCTION_CACHE_DISABLE();
#endif /* INSTRUCTION_CACHE_ENABLE */

#if (PREFETCH_ENABLE != 0U)
  __HAL_FLASH_PREFETCH_BUFFER_ENABLE();
 8000460:	4b0b      	ldr	r3, [pc, #44]	@ (8000490 <HAL_Init+0x3c>)
 8000462:	681a      	ldr	r2, [r3, #0]
 8000464:	4b0a      	ldr	r3, [pc, #40]	@ (8000490 <HAL_Init+0x3c>)
 8000466:	2180      	movs	r1, #128	@ 0x80
 8000468:	0049      	lsls	r1, r1, #1
 800046a:	430a      	orrs	r2, r1
 800046c:	601a      	str	r2, [r3, #0]
#endif /* PREFETCH_ENABLE */

  /* Use SysTick as time base source and configure 1ms tick (default clock after Reset is HSI) */
  if (HAL_InitTick(TICK_INT_PRIORITY) != HAL_OK)
 800046e:	2003      	movs	r0, #3
 8000470:	f000 f810 	bl	8000494 <HAL_InitTick>
 8000474:	1e03      	subs	r3, r0, #0
 8000476:	d003      	beq.n	8000480 <HAL_Init+0x2c>
  {
    status = HAL_ERROR;
 8000478:	1dfb      	adds	r3, r7, #7
 800047a:	2201      	movs	r2, #1
 800047c:	701a      	strb	r2, [r3, #0]
 800047e:	e001      	b.n	8000484 <HAL_Init+0x30>
  }
  else
  {
  /* Init the low level hardware */
  HAL_MspInit();
 8000480:	f7ff ff7c 	bl	800037c <HAL_MspInit>
  }

  /* Return function status */
  return status;
 8000484:	1dfb      	adds	r3, r7, #7
 8000486:	781b      	ldrb	r3, [r3, #0]
}
 8000488:	0018      	movs	r0, r3
 800048a:	46bd      	mov	sp, r7
 800048c:	b002      	add	sp, #8
 800048e:	bd80      	pop	{r7, pc}
 8000490:	40022000 	.word	0x40022000

08000494 <HAL_InitTick>:
  *       implementation  in user file.
  * @param TickPriority Tick interrupt priority.
  * @retval HAL status
  */
__weak HAL_StatusTypeDef HAL_InitTick(uint32_t TickPriority)
{
 8000494:	b590      	push	{r4, r7, lr}
 8000496:	b085      	sub	sp, #20
 8000498:	af00      	add	r7, sp, #0
 800049a:	6078      	str	r0, [r7, #4]
  HAL_StatusTypeDef  status = HAL_OK;
 800049c:	230f      	movs	r3, #15
 800049e:	18fb      	adds	r3, r7, r3
 80004a0:	2200      	movs	r2, #0
 80004a2:	701a      	strb	r2, [r3, #0]

  /* Check uwTickFreq for MisraC 2012 (even if uwTickFreq is a enum type that doesn't take the value zero)*/ 
  if ((uint32_t)uwTickFreq != 0U)
 80004a4:	4b1d      	ldr	r3, [pc, #116]	@ (800051c <HAL_InitTick+0x88>)
 80004a6:	781b      	ldrb	r3, [r3, #0]
 80004a8:	2b00      	cmp	r3, #0
 80004aa:	d02b      	beq.n	8000504 <HAL_InitTick+0x70>
  {
    /*Configure the SysTick to have interrupt in 1ms time basis*/
    if (HAL_SYSTICK_Config(SystemCoreClock / (1000U /(uint32_t)uwTickFreq)) == 0U)
 80004ac:	4b1c      	ldr	r3, [pc, #112]	@ (8000520 <HAL_InitTick+0x8c>)
 80004ae:	681c      	ldr	r4, [r3, #0]
 80004b0:	4b1a      	ldr	r3, [pc, #104]	@ (800051c <HAL_InitTick+0x88>)
 80004b2:	781b      	ldrb	r3, [r3, #0]
 80004b4:	0019      	movs	r1, r3
 80004b6:	23fa      	movs	r3, #250	@ 0xfa
 80004b8:	0098      	lsls	r0, r3, #2
 80004ba:	f7ff fe23 	bl	8000104 <__udivsi3>
 80004be:	0003      	movs	r3, r0
 80004c0:	0019      	movs	r1, r3
 80004c2:	0020      	movs	r0, r4
 80004c4:	f7ff fe1e 	bl	8000104 <__udivsi3>
 80004c8:	0003      	movs	r3, r0
 80004ca:	0018      	movs	r0, r3
 80004cc:	f000 f913 	bl	80006f6 <HAL_SYSTICK_Config>
 80004d0:	1e03      	subs	r3, r0, #0
 80004d2:	d112      	bne.n	80004fa <HAL_InitTick+0x66>
    {
      /* Configure the SysTick IRQ priority */
      if (TickPriority < (1UL << __NVIC_PRIO_BITS))
 80004d4:	687b      	ldr	r3, [r7, #4]
 80004d6:	2b03      	cmp	r3, #3
 80004d8:	d80a      	bhi.n	80004f0 <HAL_InitTick+0x5c>
      {
        HAL_NVIC_SetPriority(SysTick_IRQn, TickPriority, 0U);
 80004da:	6879      	ldr	r1, [r7, #4]
 80004dc:	2301      	movs	r3, #1
 80004de:	425b      	negs	r3, r3
 80004e0:	2200      	movs	r2, #0
 80004e2:	0018      	movs	r0, r3
 80004e4:	f000 f8f2 	bl	80006cc <HAL_NVIC_SetPriority>
        uwTickPrio = TickPriority;
 80004e8:	4b0e      	ldr	r3, [pc, #56]	@ (8000524 <HAL_InitTick+0x90>)
 80004ea:	687a      	ldr	r2, [r7, #4]
 80004ec:	601a      	str	r2, [r3, #0]
 80004ee:	e00d      	b.n	800050c <HAL_InitTick+0x78>
      }
      else
      {
        status = HAL_ERROR;
 80004f0:	230f      	movs	r3, #15
 80004f2:	18fb      	adds	r3, r7, r3
 80004f4:	2201      	movs	r2, #1
 80004f6:	701a      	strb	r2, [r3, #0]
 80004f8:	e008      	b.n	800050c <HAL_InitTick+0x78>
      }
    }
    else
    {
      status = HAL_ERROR;
 80004fa:	230f      	movs	r3, #15
 80004fc:	18fb      	adds	r3, r7, r3
 80004fe:	2201      	movs	r2, #1
 8000500:	701a      	strb	r2, [r3, #0]
 8000502:	e003      	b.n	800050c <HAL_InitTick+0x78>
    }
  }
  else
  {
    status = HAL_ERROR;
 8000504:	230f      	movs	r3, #15
 8000506:	18fb      	adds	r3, r7, r3
 8000508:	2201      	movs	r2, #1
 800050a:	701a      	strb	r2, [r3, #0]
  }

  /* Return function status */
  return status;
 800050c:	230f      	movs	r3, #15
 800050e:	18fb      	adds	r3, r7, r3
 8000510:	781b      	ldrb	r3, [r3, #0]
}
 8000512:	0018      	movs	r0, r3
 8000514:	46bd      	mov	sp, r7
 8000516:	b005      	add	sp, #20
 8000518:	bd90      	pop	{r4, r7, pc}
 800051a:	46c0      	nop			@ (mov r8, r8)
 800051c:	20000008 	.word	0x20000008
 8000520:	20000000 	.word	0x20000000
 8000524:	20000004 	.word	0x20000004

08000528 <HAL_IncTick>:
  * @note This function is declared as __weak to be overwritten in case of other
  *      implementations in user file.
  * @retval None
  */
__weak void HAL_IncTick(void)
{
 8000528:	b580      	push	{r7, lr}
 800052a:	af00      	add	r7, sp, #0
  uwTick += (uint32_t)uwTickFreq;
 800052c:	4b05      	ldr	r3, [pc, #20]	@ (8000544 <HAL_IncTick+0x1c>)
 800052e:	781b      	ldrb	r3, [r3, #0]
 8000530:	001a      	movs	r2, r3
 8000532:	4b05      	ldr	r3, [pc, #20]	@ (8000548 <HAL_IncTick+0x20>)
 8000534:	681b      	ldr	r3, [r3, #0]
 8000536:	18d2      	adds	r2, r2, r3
 8000538:	4b03      	ldr	r3, [pc, #12]	@ (8000548 <HAL_IncTick+0x20>)
 800053a:	601a      	str	r2, [r3, #0]
}
 800053c:	46c0      	nop			@ (mov r8, r8)
 800053e:	46bd      	mov	sp, r7
 8000540:	bd80      	pop	{r7, pc}
 8000542:	46c0      	nop			@ (mov r8, r8)
 8000544:	20000008 	.word	0x20000008
 8000548:	20000028 	.word	0x20000028

0800054c <HAL_GetTick>:
  * @note This function is declared as __weak to be overwritten in case of other
  *       implementations in user file.
  * @retval tick value
  */
__weak uint32_t HAL_GetTick(void)
{
 800054c:	b580      	push	{r7, lr}
 800054e:	af00      	add	r7, sp, #0
  return uwTick;
 8000550:	4b02      	ldr	r3, [pc, #8]	@ (800055c <HAL_GetTick+0x10>)
 8000552:	681b      	ldr	r3, [r3, #0]
}
 8000554:	0018      	movs	r0, r3
 8000556:	46bd      	mov	sp, r7
 8000558:	bd80      	pop	{r7, pc}
 800055a:	46c0      	nop			@ (mov r8, r8)
 800055c:	20000028 	.word	0x20000028

08000560 <HAL_Delay>:
  *       implementations in user file.
  * @param Delay  specifies the delay time length, in milliseconds.
  * @retval None
  */
__weak void HAL_Delay(uint32_t Delay)
{
 8000560:	b580      	push	{r7, lr}
 8000562:	b084      	sub	sp, #16
 8000564:	af00      	add	r7, sp, #0
 8000566:	6078      	str	r0, [r7, #4]
  uint32_t tickstart = HAL_GetTick();
 8000568:	f7ff fff0 	bl	800054c <HAL_GetTick>
 800056c:	0003      	movs	r3, r0
 800056e:	60bb      	str	r3, [r7, #8]
  uint32_t wait = Delay;
 8000570:	687b      	ldr	r3, [r7, #4]
 8000572:	60fb      	str	r3, [r7, #12]

  /* Add a freq to guarantee minimum wait */
  if (wait < HAL_MAX_DELAY)
 8000574:	68fb      	ldr	r3, [r7, #12]
 8000576:	3301      	adds	r3, #1
 8000578:	d005      	beq.n	8000586 <HAL_Delay+0x26>
  {
    wait += (uint32_t)(uwTickFreq);
 800057a:	4b0a      	ldr	r3, [pc, #40]	@ (80005a4 <HAL_Delay+0x44>)
 800057c:	781b      	ldrb	r3, [r3, #0]
 800057e:	001a      	movs	r2, r3
 8000580:	68fb      	ldr	r3, [r7, #12]
 8000582:	189b      	adds	r3, r3, r2
 8000584:	60fb      	str	r3, [r7, #12]
  }

  while ((HAL_GetTick() - tickstart) < wait)
 8000586:	46c0      	nop			@ (mov r8, r8)
 8000588:	f7ff ffe0 	bl	800054c <HAL_GetTick>
 800058c:	0002      	movs	r2, r0
 800058e:	68bb      	ldr	r3, [r7, #8]
 8000590:	1ad3      	subs	r3, r2, r3
 8000592:	68fa      	ldr	r2, [r7, #12]
 8000594:	429a      	cmp	r2, r3
 8000596:	d8f7      	bhi.n	8000588 <HAL_Delay+0x28>
  {
  }
}
 8000598:	46c0      	nop			@ (mov r8, r8)
 800059a:	46c0      	nop			@ (mov r8, r8)
 800059c:	46bd      	mov	sp, r7
 800059e:	b004      	add	sp, #16
 80005a0:	bd80      	pop	{r7, pc}
 80005a2:	46c0      	nop			@ (mov r8, r8)
 80005a4:	20000008 	.word	0x20000008

080005a8 <__NVIC_SetPriority>:
  \param [in]      IRQn  Interrupt number.
  \param [in]  priority  Priority to set.
  \note    The priority cannot be set for every processor exception.
 */
__STATIC_INLINE void __NVIC_SetPriority(IRQn_Type IRQn, uint32_t priority)
{
 80005a8:	b590      	push	{r4, r7, lr}
 80005aa:	b083      	sub	sp, #12
 80005ac:	af00      	add	r7, sp, #0
 80005ae:	0002      	movs	r2, r0
 80005b0:	6039      	str	r1, [r7, #0]
 80005b2:	1dfb      	adds	r3, r7, #7
 80005b4:	701a      	strb	r2, [r3, #0]
  if ((int32_t)(IRQn) >= 0)
 80005b6:	1dfb      	adds	r3, r7, #7
 80005b8:	781b      	ldrb	r3, [r3, #0]
 80005ba:	2b7f      	cmp	r3, #127	@ 0x7f
 80005bc:	d828      	bhi.n	8000610 <__NVIC_SetPriority+0x68>
  {
    NVIC->IP[_IP_IDX(IRQn)]  = ((uint32_t)(NVIC->IP[_IP_IDX(IRQn)]  & ~(0xFFUL << _BIT_SHIFT(IRQn))) |
 80005be:	4a2f      	ldr	r2, [pc, #188]	@ (800067c <__NVIC_SetPriority+0xd4>)
 80005c0:	1dfb      	adds	r3, r7, #7
 80005c2:	781b      	ldrb	r3, [r3, #0]
 80005c4:	b25b      	sxtb	r3, r3
 80005c6:	089b      	lsrs	r3, r3, #2
 80005c8:	33c0      	adds	r3, #192	@ 0xc0
 80005ca:	009b      	lsls	r3, r3, #2
 80005cc:	589b      	ldr	r3, [r3, r2]
 80005ce:	1dfa      	adds	r2, r7, #7
 80005d0:	7812      	ldrb	r2, [r2, #0]
 80005d2:	0011      	movs	r1, r2
 80005d4:	2203      	movs	r2, #3
 80005d6:	400a      	ands	r2, r1
 80005d8:	00d2      	lsls	r2, r2, #3
 80005da:	21ff      	movs	r1, #255	@ 0xff
 80005dc:	4091      	lsls	r1, r2
 80005de:	000a      	movs	r2, r1
 80005e0:	43d2      	mvns	r2, r2
 80005e2:	401a      	ands	r2, r3
 80005e4:	0011      	movs	r1, r2
       (((priority << (8U - __NVIC_PRIO_BITS)) & (uint32_t)0xFFUL) << _BIT_SHIFT(IRQn)));
 80005e6:	683b      	ldr	r3, [r7, #0]
 80005e8:	019b      	lsls	r3, r3, #6
 80005ea:	22ff      	movs	r2, #255	@ 0xff
 80005ec:	401a      	ands	r2, r3
 80005ee:	1dfb      	adds	r3, r7, #7
 80005f0:	781b      	ldrb	r3, [r3, #0]
 80005f2:	0018      	movs	r0, r3
 80005f4:	2303      	movs	r3, #3
 80005f6:	4003      	ands	r3, r0
 80005f8:	00db      	lsls	r3, r3, #3
 80005fa:	409a      	lsls	r2, r3
    NVIC->IP[_IP_IDX(IRQn)]  = ((uint32_t)(NVIC->IP[_IP_IDX(IRQn)]  & ~(0xFFUL << _BIT_SHIFT(IRQn))) |
 80005fc:	481f      	ldr	r0, [pc, #124]	@ (800067c <__NVIC_SetPriority+0xd4>)
 80005fe:	1dfb      	adds	r3, r7, #7
 8000600:	781b      	ldrb	r3, [r3, #0]
 8000602:	b25b      	sxtb	r3, r3
 8000604:	089b      	lsrs	r3, r3, #2
 8000606:	430a      	orrs	r2, r1
 8000608:	33c0      	adds	r3, #192	@ 0xc0
 800060a:	009b      	lsls	r3, r3, #2
 800060c:	501a      	str	r2, [r3, r0]
  else
  {
    SCB->SHP[_SHP_IDX(IRQn)] = ((uint32_t)(SCB->SHP[_SHP_IDX(IRQn)] & ~(0xFFUL << _BIT_SHIFT(IRQn))) |
       (((priority << (8U - __NVIC_PRIO_BITS)) & (uint32_t)0xFFUL) << _BIT_SHIFT(IRQn)));
  }
}
 800060e:	e031      	b.n	8000674 <__NVIC_SetPriority+0xcc>
    SCB->SHP[_SHP_IDX(IRQn)] = ((uint32_t)(SCB->SHP[_SHP_IDX(IRQn)] & ~(0xFFUL << _BIT_SHIFT(IRQn))) |
 8000610:	4a1b      	ldr	r2, [pc, #108]	@ (8000680 <__NVIC_SetPriority+0xd8>)
 8000612:	1dfb      	adds	r3, r7, #7
 8000614:	781b      	ldrb	r3, [r3, #0]
 8000616:	0019      	movs	r1, r3
 8000618:	230f      	movs	r3, #15
 800061a:	400b      	ands	r3, r1
 800061c:	3b08      	subs	r3, #8
 800061e:	089b      	lsrs	r3, r3, #2
 8000620:	3306      	adds	r3, #6
 8000622:	009b      	lsls	r3, r3, #2
 8000624:	18d3      	adds	r3, r2, r3
 8000626:	3304      	adds	r3, #4
 8000628:	681b      	ldr	r3, [r3, #0]
 800062a:	1dfa      	adds	r2, r7, #7
 800062c:	7812      	ldrb	r2, [r2, #0]
 800062e:	0011      	movs	r1, r2
 8000630:	2203      	movs	r2, #3
 8000632:	400a      	ands	r2, r1
 8000634:	00d2      	lsls	r2, r2, #3
 8000636:	21ff      	movs	r1, #255	@ 0xff
 8000638:	4091      	lsls	r1, r2
 800063a:	000a      	movs	r2, r1
 800063c:	43d2      	mvns	r2, r2
 800063e:	401a      	ands	r2, r3
 8000640:	0011      	movs	r1, r2
       (((priority << (8U - __NVIC_PRIO_BITS)) & (uint32_t)0xFFUL) << _BIT_SHIFT(IRQn)));
 8000642:	683b      	ldr	r3, [r7, #0]
 8000644:	019b      	lsls	r3, r3, #6
 8000646:	22ff      	movs	r2, #255	@ 0xff
 8000648:	401a      	ands	r2, r3
 800064a:	1dfb      	adds	r3, r7, #7
 800064c:	781b      	ldrb	r3, [r3, #0]
 800064e:	0018      	movs	r0, r3
 8000650:	2303      	movs	r3, #3
 8000652:	4003      	ands	r3, r0
 8000654:	00db      	lsls	r3, r3, #3
 8000656:	409a      	lsls	r2, r3
    SCB->SHP[_SHP_IDX(IRQn)] = ((uint32_t)(SCB->SHP[_SHP_IDX(IRQn)] & ~(0xFFUL << _BIT_SHIFT(IRQn))) |
 8000658:	4809      	ldr	r0, [pc, #36]	@ (8000680 <__NVIC_SetPriority+0xd8>)
 800065a:	1dfb      	adds	r3, r7, #7
 800065c:	781b      	ldrb	r3, [r3, #0]
 800065e:	001c      	movs	r4, r3
 8000660:	230f      	movs	r3, #15
 8000662:	4023      	ands	r3, r4
 8000664:	3b08      	subs	r3, #8
 8000666:	089b      	lsrs	r3, r3, #2
 8000668:	430a      	orrs	r2, r1
 800066a:	3306      	adds	r3, #6
 800066c:	009b      	lsls	r3, r3, #2
 800066e:	18c3      	adds	r3, r0, r3
 8000670:	3304      	adds	r3, #4
 8000672:	601a      	str	r2, [r3, #0]
}
 8000674:	46c0      	nop			@ (mov r8, r8)
 8000676:	46bd      	mov	sp, r7
 8000678:	b003      	add	sp, #12
 800067a:	bd90      	pop	{r4, r7, pc}
 800067c:	e000e100 	.word	0xe000e100
 8000680:	e000ed00 	.word	0xe000ed00

08000684 <SysTick_Config>:
  \note    When the variable <b>__Vendor_SysTickConfig</b> is set to 1, then the
           function <b>SysTick_Config</b> is not included. In this case, the file <b><i>device</i>.h</b>
           must contain a vendor-specific implementation of this function.
 */
__STATIC_INLINE uint32_t SysTick_Config(uint32_t ticks)
{
 8000684:	b580      	push	{r7, lr}
 8000686:	b082      	sub	sp, #8
 8000688:	af00      	add	r7, sp, #0
 800068a:	6078      	str	r0, [r7, #4]
  if ((ticks - 1UL) > SysTick_LOAD_RELOAD_Msk)
 800068c:	687b      	ldr	r3, [r7, #4]
 800068e:	1e5a      	subs	r2, r3, #1
 8000690:	2380      	movs	r3, #128	@ 0x80
 8000692:	045b      	lsls	r3, r3, #17
 8000694:	429a      	cmp	r2, r3
 8000696:	d301      	bcc.n	800069c <SysTick_Config+0x18>
  {
    return (1UL);                                                   /* Reload value impossible */
 8000698:	2301      	movs	r3, #1
 800069a:	e010      	b.n	80006be <SysTick_Config+0x3a>
  }

  SysTick->LOAD  = (uint32_t)(ticks - 1UL);                         /* set reload register */
 800069c:	4b0a      	ldr	r3, [pc, #40]	@ (80006c8 <SysTick_Config+0x44>)
 800069e:	687a      	ldr	r2, [r7, #4]
 80006a0:	3a01      	subs	r2, #1
 80006a2:	605a      	str	r2, [r3, #4]
  NVIC_SetPriority (SysTick_IRQn, (1UL << __NVIC_PRIO_BITS) - 1UL); /* set Priority for Systick Interrupt */
 80006a4:	2301      	movs	r3, #1
 80006a6:	425b      	negs	r3, r3
 80006a8:	2103      	movs	r1, #3
 80006aa:	0018      	movs	r0, r3
 80006ac:	f7ff ff7c 	bl	80005a8 <__NVIC_SetPriority>
  SysTick->VAL   = 0UL;                                             /* Load the SysTick Counter Value */
 80006b0:	4b05      	ldr	r3, [pc, #20]	@ (80006c8 <SysTick_Config+0x44>)
 80006b2:	2200      	movs	r2, #0
 80006b4:	609a      	str	r2, [r3, #8]
  SysTick->CTRL  = SysTick_CTRL_CLKSOURCE_Msk |
 80006b6:	4b04      	ldr	r3, [pc, #16]	@ (80006c8 <SysTick_Config+0x44>)
 80006b8:	2207      	movs	r2, #7
 80006ba:	601a      	str	r2, [r3, #0]
                   SysTick_CTRL_TICKINT_Msk   |
                   SysTick_CTRL_ENABLE_Msk;                         /* Enable SysTick IRQ and SysTick Timer */
  return (0UL);                                                     /* Function successful */
 80006bc:	2300      	movs	r3, #0
}
 80006be:	0018      	movs	r0, r3
 80006c0:	46bd      	mov	sp, r7
 80006c2:	b002      	add	sp, #8
 80006c4:	bd80      	pop	{r7, pc}
 80006c6:	46c0      	nop			@ (mov r8, r8)
 80006c8:	e000e010 	.word	0xe000e010

080006cc <HAL_NVIC_SetPriority>:
  *         with stm32g0xx devices, this parameter is a dummy value and it is ignored, because
  *         no subpriority supported in Cortex M0+ based products.
  * @retval None
  */
void HAL_NVIC_SetPriority(IRQn_Type IRQn, uint32_t PreemptPriority, uint32_t SubPriority)
{
 80006cc:	b580      	push	{r7, lr}
 80006ce:	b084      	sub	sp, #16
 80006d0:	af00      	add	r7, sp, #0
 80006d2:	60b9      	str	r1, [r7, #8]
 80006d4:	607a      	str	r2, [r7, #4]
 80006d6:	210f      	movs	r1, #15
 80006d8:	187b      	adds	r3, r7, r1
 80006da:	1c02      	adds	r2, r0, #0
 80006dc:	701a      	strb	r2, [r3, #0]
  /* Prevent unused argument(s) compilation warning */
  UNUSED(SubPriority);

  /* Check the parameters */
  assert_param(IS_NVIC_PREEMPTION_PRIORITY(PreemptPriority));
  NVIC_SetPriority(IRQn, PreemptPriority);
 80006de:	68ba      	ldr	r2, [r7, #8]
 80006e0:	187b      	adds	r3, r7, r1
 80006e2:	781b      	ldrb	r3, [r3, #0]
 80006e4:	b25b      	sxtb	r3, r3
 80006e6:	0011      	movs	r1, r2
 80006e8:	0018      	movs	r0, r3
 80006ea:	f7ff ff5d 	bl	80005a8 <__NVIC_SetPriority>
}
 80006ee:	46c0      	nop			@ (mov r8, r8)
 80006f0:	46bd      	mov	sp, r7
 80006f2:	b004      	add	sp, #16
 80006f4:	bd80      	pop	{r7, pc}

080006f6 <HAL_SYSTICK_Config>:
  * @param  TicksNumb Specifies the ticks Number of ticks between two interrupts.
  * @retval status:  - 0  Function succeeded.
  *                  - 1  Function failed.
  */
uint32_t HAL_SYSTICK_Config(uint32_t TicksNumb)
{
 80006f6:	b580      	push	{r7, lr}
 80006f8:	b082      	sub	sp, #8
 80006fa:	af00      	add	r7, sp, #0
 80006fc:	6078      	str	r0, [r7, #4]
  return SysTick_Config(TicksNumb);
 80006fe:	687b      	ldr	r3, [r7, #4]
 8000700:	0018      	movs	r0, r3
 8000702:	f7ff ffbf 	bl	8000684 <SysTick_Config>
 8000706:	0003      	movs	r3, r0
}
 8000708:	0018      	movs	r0, r3
 800070a:	46bd      	mov	sp, r7
 800070c:	b002      	add	sp, #8
 800070e:	bd80      	pop	{r7, pc}

08000710 <HAL_GPIO_Init>:
  * @param  GPIO_Init pointer to a GPIO_InitTypeDef structure that contains
  *         the configuration information for the specified GPIO peripheral.
  * @retval None
  */
void HAL_GPIO_Init(GPIO_TypeDef  *GPIOx, GPIO_InitTypeDef *GPIO_Init)
{
 8000710:	b580      	push	{r7, lr}
 8000712:	b086      	sub	sp, #24
 8000714:	af00      	add	r7, sp, #0
 8000716:	6078      	str	r0, [r7, #4]
 8000718:	6039      	str	r1, [r7, #0]
  uint32_t position = 0x00u;
 800071a:	2300      	movs	r3, #0
 800071c:	617b      	str	r3, [r7, #20]
  assert_param(IS_GPIO_ALL_INSTANCE(GPIOx));
  assert_param(IS_GPIO_PIN(GPIO_Init->Pin));
  assert_param(IS_GPIO_MODE(GPIO_Init->Mode));

  /* Configure the port pins */
  while (((GPIO_Init->Pin) >> position) != 0x00u)
 800071e:	e147      	b.n	80009b0 <HAL_GPIO_Init+0x2a0>
  {
    /* Get current io position */
    iocurrent = (GPIO_Init->Pin) & (1uL << position);
 8000720:	683b      	ldr	r3, [r7, #0]
 8000722:	681b      	ldr	r3, [r3, #0]
 8000724:	2101      	movs	r1, #1
 8000726:	697a      	ldr	r2, [r7, #20]
 8000728:	4091      	lsls	r1, r2
 800072a:	000a      	movs	r2, r1
 800072c:	4013      	ands	r3, r2
 800072e:	60fb      	str	r3, [r7, #12]

    if (iocurrent != 0x00u)
 8000730:	68fb      	ldr	r3, [r7, #12]
 8000732:	2b00      	cmp	r3, #0
 8000734:	d100      	bne.n	8000738 <HAL_GPIO_Init+0x28>
 8000736:	e138      	b.n	80009aa <HAL_GPIO_Init+0x29a>
    {
      /*--------------------- GPIO Mode Configuration ------------------------*/
      /* In case of Output or Alternate function mode selection */
      if (((GPIO_Init->Mode & GPIO_MODE) == MODE_OUTPUT) || ((GPIO_Init->Mode & GPIO_MODE) == MODE_AF))
 8000738:	683b      	ldr	r3, [r7, #0]
 800073a:	685b      	ldr	r3, [r3, #4]
 800073c:	2203      	movs	r2, #3
 800073e:	4013      	ands	r3, r2
 8000740:	2b01      	cmp	r3, #1
 8000742:	d005      	beq.n	8000750 <HAL_GPIO_Init+0x40>
 8000744:	683b      	ldr	r3, [r7, #0]
 8000746:	685b      	ldr	r3, [r3, #4]
 8000748:	2203      	movs	r2, #3
 800074a:	4013      	ands	r3, r2
 800074c:	2b02      	cmp	r3, #2
 800074e:	d130      	bne.n	80007b2 <HAL_GPIO_Init+0xa2>
      {
        /* Check the Speed parameter */
        assert_param(IS_GPIO_SPEED(GPIO_Init->Speed));

        /* Configure the IO Speed */
        temp = GPIOx->OSPEEDR;
 8000750:	687b      	ldr	r3, [r7, #4]
 8000752:	689b      	ldr	r3, [r3, #8]
 8000754:	613b      	str	r3, [r7, #16]
        temp &= ~(GPIO_OSPEEDR_OSPEED0 << (position * 2u));
 8000756:	697b      	ldr	r3, [r7, #20]
 8000758:	005b      	lsls	r3, r3, #1
 800075a:	2203      	movs	r2, #3
 800075c:	409a      	lsls	r2, r3
 800075e:	0013      	movs	r3, r2
 8000760:	43da      	mvns	r2, r3
 8000762:	693b      	ldr	r3, [r7, #16]
 8000764:	4013      	ands	r3, r2
 8000766:	613b      	str	r3, [r7, #16]
        temp |= (GPIO_Init->Speed << (position * 2u));
 8000768:	683b      	ldr	r3, [r7, #0]
 800076a:	68da      	ldr	r2, [r3, #12]
 800076c:	697b      	ldr	r3, [r7, #20]
 800076e:	005b      	lsls	r3, r3, #1
 8000770:	409a      	lsls	r2, r3
 8000772:	0013      	movs	r3, r2
 8000774:	693a      	ldr	r2, [r7, #16]
 8000776:	4313      	orrs	r3, r2
 8000778:	613b      	str	r3, [r7, #16]
        GPIOx->OSPEEDR = temp;
 800077a:	687b      	ldr	r3, [r7, #4]
 800077c:	693a      	ldr	r2, [r7, #16]
 800077e:	609a      	str	r2, [r3, #8]

        /* Configure the IO Output Type */
        temp = GPIOx->OTYPER;
 8000780:	687b      	ldr	r3, [r7, #4]
 8000782:	685b      	ldr	r3, [r3, #4]
 8000784:	613b      	str	r3, [r7, #16]
        temp &= ~(GPIO_OTYPER_OT0 << position) ;
 8000786:	2201      	movs	r2, #1
 8000788:	697b      	ldr	r3, [r7, #20]
 800078a:	409a      	lsls	r2, r3
 800078c:	0013      	movs	r3, r2
 800078e:	43da      	mvns	r2, r3
 8000790:	693b      	ldr	r3, [r7, #16]
 8000792:	4013      	ands	r3, r2
 8000794:	613b      	str	r3, [r7, #16]
        temp |= (((GPIO_Init->Mode & OUTPUT_TYPE) >> OUTPUT_TYPE_Pos) << position);
 8000796:	683b      	ldr	r3, [r7, #0]
 8000798:	685b      	ldr	r3, [r3, #4]
 800079a:	091b      	lsrs	r3, r3, #4
 800079c:	2201      	movs	r2, #1
 800079e:	401a      	ands	r2, r3
 80007a0:	697b      	ldr	r3, [r7, #20]
 80007a2:	409a      	lsls	r2, r3
 80007a4:	0013      	movs	r3, r2
 80007a6:	693a      	ldr	r2, [r7, #16]
 80007a8:	4313      	orrs	r3, r2
 80007aa:	613b      	str	r3, [r7, #16]
        GPIOx->OTYPER = temp;
 80007ac:	687b      	ldr	r3, [r7, #4]
 80007ae:	693a      	ldr	r2, [r7, #16]
 80007b0:	605a      	str	r2, [r3, #4]
      }

      if ((GPIO_Init->Mode & GPIO_MODE) != MODE_ANALOG)
 80007b2:	683b      	ldr	r3, [r7, #0]
 80007b4:	685b      	ldr	r3, [r3, #4]
 80007b6:	2203      	movs	r2, #3
 80007b8:	4013      	ands	r3, r2
 80007ba:	2b03      	cmp	r3, #3
 80007bc:	d017      	beq.n	80007ee <HAL_GPIO_Init+0xde>
      {
        /* Check the Pull parameter */
        assert_param(IS_GPIO_PULL(GPIO_Init->Pull));

        /* Activate the Pull-up or Pull down resistor for the current IO */
        temp = GPIOx->PUPDR;
 80007be:	687b      	ldr	r3, [r7, #4]
 80007c0:	68db      	ldr	r3, [r3, #12]
 80007c2:	613b      	str	r3, [r7, #16]
        temp &= ~(GPIO_PUPDR_PUPD0 << (position * 2u));
 80007c4:	697b      	ldr	r3, [r7, #20]
 80007c6:	005b      	lsls	r3, r3, #1
 80007c8:	2203      	movs	r2, #3
 80007ca:	409a      	lsls	r2, r3
 80007cc:	0013      	movs	r3, r2
 80007ce:	43da      	mvns	r2, r3
 80007d0:	693b      	ldr	r3, [r7, #16]
 80007d2:	4013      	ands	r3, r2
 80007d4:	613b      	str	r3, [r7, #16]
        temp |= ((GPIO_Init->Pull) << (position * 2u));
 80007d6:	683b      	ldr	r3, [r7, #0]
 80007d8:	689a      	ldr	r2, [r3, #8]
 80007da:	697b      	ldr	r3, [r7, #20]
 80007dc:	005b      	lsls	r3, r3, #1
 80007de:	409a      	lsls	r2, r3
 80007e0:	0013      	movs	r3, r2
 80007e2:	693a      	ldr	r2, [r7, #16]
 80007e4:	4313      	orrs	r3, r2
 80007e6:	613b      	str	r3, [r7, #16]
        GPIOx->PUPDR = temp;
 80007e8:	687b      	ldr	r3, [r7, #4]
 80007ea:	693a      	ldr	r2, [r7, #16]
 80007ec:	60da      	str	r2, [r3, #12]
      }

      /* In case of Alternate function mode selection */
      if ((GPIO_Init->Mode & GPIO_MODE) == MODE_AF)
 80007ee:	683b      	ldr	r3, [r7, #0]
 80007f0:	685b      	ldr	r3, [r3, #4]
 80007f2:	2203      	movs	r2, #3
 80007f4:	4013      	ands	r3, r2
 80007f6:	2b02      	cmp	r3, #2
 80007f8:	d123      	bne.n	8000842 <HAL_GPIO_Init+0x132>
        /* Check the Alternate function parameters */
        assert_param(IS_GPIO_AF_INSTANCE(GPIOx));
        assert_param(IS_GPIO_AF(GPIO_Init->Alternate));

        /* Configure Alternate function mapped with the current IO */
        temp = GPIOx->AFR[position >> 3u];
 80007fa:	697b      	ldr	r3, [r7, #20]
 80007fc:	08da      	lsrs	r2, r3, #3
 80007fe:	687b      	ldr	r3, [r7, #4]
 8000800:	3208      	adds	r2, #8
 8000802:	0092      	lsls	r2, r2, #2
 8000804:	58d3      	ldr	r3, [r2, r3]
 8000806:	613b      	str	r3, [r7, #16]
        temp &= ~(0xFu << ((position & 0x07u) * 4u));
 8000808:	697b      	ldr	r3, [r7, #20]
 800080a:	2207      	movs	r2, #7
 800080c:	4013      	ands	r3, r2
 800080e:	009b      	lsls	r3, r3, #2
 8000810:	220f      	movs	r2, #15
 8000812:	409a      	lsls	r2, r3
 8000814:	0013      	movs	r3, r2
 8000816:	43da      	mvns	r2, r3
 8000818:	693b      	ldr	r3, [r7, #16]
 800081a:	4013      	ands	r3, r2
 800081c:	613b      	str	r3, [r7, #16]
        temp |= ((GPIO_Init->Alternate) << ((position & 0x07u) * 4u));
 800081e:	683b      	ldr	r3, [r7, #0]
 8000820:	691a      	ldr	r2, [r3, #16]
 8000822:	697b      	ldr	r3, [r7, #20]
 8000824:	2107      	movs	r1, #7
 8000826:	400b      	ands	r3, r1
 8000828:	009b      	lsls	r3, r3, #2
 800082a:	409a      	lsls	r2, r3
 800082c:	0013      	movs	r3, r2
 800082e:	693a      	ldr	r2, [r7, #16]
 8000830:	4313      	orrs	r3, r2
 8000832:	613b      	str	r3, [r7, #16]
        GPIOx->AFR[position >> 3u] = temp;
 8000834:	697b      	ldr	r3, [r7, #20]
 8000836:	08da      	lsrs	r2, r3, #3
 8000838:	687b      	ldr	r3, [r7, #4]
 800083a:	3208      	adds	r2, #8
 800083c:	0092      	lsls	r2, r2, #2
 800083e:	6939      	ldr	r1, [r7, #16]
 8000840:	50d1      	str	r1, [r2, r3]
      }

      /* Configure IO Direction mode (Input, Output, Alternate or Analog) */
      temp = GPIOx->MODER;
 8000842:	687b      	ldr	r3, [r7, #4]
 8000844:	681b      	ldr	r3, [r3, #0]
 8000846:	613b      	str	r3, [r7, #16]
      temp &= ~(GPIO_MODER_MODE0 << (position * 2u));
 8000848:	697b      	ldr	r3, [r7, #20]
 800084a:	005b      	lsls	r3, r3, #1
 800084c:	2203      	movs	r2, #3
 800084e:	409a      	lsls	r2, r3
 8000850:	0013      	movs	r3, r2
 8000852:	43da      	mvns	r2, r3
 8000854:	693b      	ldr	r3, [r7, #16]
 8000856:	4013      	ands	r3, r2
 8000858:	613b      	str	r3, [r7, #16]
      temp |= ((GPIO_Init->Mode & GPIO_MODE) << (position * 2u));
 800085a:	683b      	ldr	r3, [r7, #0]
 800085c:	685b      	ldr	r3, [r3, #4]
 800085e:	2203      	movs	r2, #3
 8000860:	401a      	ands	r2, r3
 8000862:	697b      	ldr	r3, [r7, #20]
 8000864:	005b      	lsls	r3, r3, #1
 8000866:	409a      	lsls	r2, r3
 8000868:	0013      	movs	r3, r2
 800086a:	693a      	ldr	r2, [r7, #16]
 800086c:	4313      	orrs	r3, r2
 800086e:	613b      	str	r3, [r7, #16]
      GPIOx->MODER = temp;
 8000870:	687b      	ldr	r3, [r7, #4]
 8000872:	693a      	ldr	r2, [r7, #16]
 8000874:	601a      	str	r2, [r3, #0]

      /*--------------------- EXTI Mode Configuration ------------------------*/
      /* Configure the External Interrupt or event for the current IO */
      if ((GPIO_Init->Mode & EXTI_MODE) != 0x00u)
 8000876:	683b      	ldr	r3, [r7, #0]
 8000878:	685a      	ldr	r2, [r3, #4]
 800087a:	23c0      	movs	r3, #192	@ 0xc0
 800087c:	029b      	lsls	r3, r3, #10
 800087e:	4013      	ands	r3, r2
 8000880:	d100      	bne.n	8000884 <HAL_GPIO_Init+0x174>
 8000882:	e092      	b.n	80009aa <HAL_GPIO_Init+0x29a>
      {
        temp = EXTI->EXTICR[position >> 2u];
 8000884:	4a50      	ldr	r2, [pc, #320]	@ (80009c8 <HAL_GPIO_Init+0x2b8>)
 8000886:	697b      	ldr	r3, [r7, #20]
 8000888:	089b      	lsrs	r3, r3, #2
 800088a:	3318      	adds	r3, #24
 800088c:	009b      	lsls	r3, r3, #2
 800088e:	589b      	ldr	r3, [r3, r2]
 8000890:	613b      	str	r3, [r7, #16]
        temp &= ~(0x0FuL << (8u * (position & 0x03u)));
 8000892:	697b      	ldr	r3, [r7, #20]
 8000894:	2203      	movs	r2, #3
 8000896:	4013      	ands	r3, r2
 8000898:	00db      	lsls	r3, r3, #3
 800089a:	220f      	movs	r2, #15
 800089c:	409a      	lsls	r2, r3
 800089e:	0013      	movs	r3, r2
 80008a0:	43da      	mvns	r2, r3
 80008a2:	693b      	ldr	r3, [r7, #16]
 80008a4:	4013      	ands	r3, r2
 80008a6:	613b      	str	r3, [r7, #16]
        temp |= (GPIO_GET_INDEX(GPIOx) << (8u * (position & 0x03u)));
 80008a8:	687a      	ldr	r2, [r7, #4]
 80008aa:	23a0      	movs	r3, #160	@ 0xa0
 80008ac:	05db      	lsls	r3, r3, #23
 80008ae:	429a      	cmp	r2, r3
 80008b0:	d013      	beq.n	80008da <HAL_GPIO_Init+0x1ca>
 80008b2:	687b      	ldr	r3, [r7, #4]
 80008b4:	4a45      	ldr	r2, [pc, #276]	@ (80009cc <HAL_GPIO_Init+0x2bc>)
 80008b6:	4293      	cmp	r3, r2
 80008b8:	d00d      	beq.n	80008d6 <HAL_GPIO_Init+0x1c6>
 80008ba:	687b      	ldr	r3, [r7, #4]
 80008bc:	4a44      	ldr	r2, [pc, #272]	@ (80009d0 <HAL_GPIO_Init+0x2c0>)
 80008be:	4293      	cmp	r3, r2
 80008c0:	d007      	beq.n	80008d2 <HAL_GPIO_Init+0x1c2>
 80008c2:	687b      	ldr	r3, [r7, #4]
 80008c4:	4a43      	ldr	r2, [pc, #268]	@ (80009d4 <HAL_GPIO_Init+0x2c4>)
 80008c6:	4293      	cmp	r3, r2
 80008c8:	d101      	bne.n	80008ce <HAL_GPIO_Init+0x1be>
 80008ca:	2303      	movs	r3, #3
 80008cc:	e006      	b.n	80008dc <HAL_GPIO_Init+0x1cc>
 80008ce:	2305      	movs	r3, #5
 80008d0:	e004      	b.n	80008dc <HAL_GPIO_Init+0x1cc>
 80008d2:	2302      	movs	r3, #2
 80008d4:	e002      	b.n	80008dc <HAL_GPIO_Init+0x1cc>
 80008d6:	2301      	movs	r3, #1
 80008d8:	e000      	b.n	80008dc <HAL_GPIO_Init+0x1cc>
 80008da:	2300      	movs	r3, #0
 80008dc:	697a      	ldr	r2, [r7, #20]
 80008de:	2103      	movs	r1, #3
 80008e0:	400a      	ands	r2, r1
 80008e2:	00d2      	lsls	r2, r2, #3
 80008e4:	4093      	lsls	r3, r2
 80008e6:	693a      	ldr	r2, [r7, #16]
 80008e8:	4313      	orrs	r3, r2
 80008ea:	613b      	str	r3, [r7, #16]
        EXTI->EXTICR[position >> 2u] = temp;
 80008ec:	4936      	ldr	r1, [pc, #216]	@ (80009c8 <HAL_GPIO_Init+0x2b8>)
 80008ee:	697b      	ldr	r3, [r7, #20]
 80008f0:	089b      	lsrs	r3, r3, #2
 80008f2:	3318      	adds	r3, #24
 80008f4:	009b      	lsls	r3, r3, #2
 80008f6:	693a      	ldr	r2, [r7, #16]
 80008f8:	505a      	str	r2, [r3, r1]

        /* Clear Rising Falling edge configuration */
        temp = EXTI->RTSR1;
 80008fa:	4b33      	ldr	r3, [pc, #204]	@ (80009c8 <HAL_GPIO_Init+0x2b8>)
 80008fc:	681b      	ldr	r3, [r3, #0]
 80008fe:	613b      	str	r3, [r7, #16]
        temp &= ~(iocurrent);
 8000900:	68fb      	ldr	r3, [r7, #12]
 8000902:	43da      	mvns	r2, r3
 8000904:	693b      	ldr	r3, [r7, #16]
 8000906:	4013      	ands	r3, r2
 8000908:	613b      	str	r3, [r7, #16]
        if ((GPIO_Init->Mode & TRIGGER_RISING) != 0x00u)
 800090a:	683b      	ldr	r3, [r7, #0]
 800090c:	685a      	ldr	r2, [r3, #4]
 800090e:	2380      	movs	r3, #128	@ 0x80
 8000910:	035b      	lsls	r3, r3, #13
 8000912:	4013      	ands	r3, r2
 8000914:	d003      	beq.n	800091e <HAL_GPIO_Init+0x20e>
        {
          temp |= iocurrent;
 8000916:	693a      	ldr	r2, [r7, #16]
 8000918:	68fb      	ldr	r3, [r7, #12]
 800091a:	4313      	orrs	r3, r2
 800091c:	613b      	str	r3, [r7, #16]
        }
        EXTI->RTSR1 = temp;
 800091e:	4b2a      	ldr	r3, [pc, #168]	@ (80009c8 <HAL_GPIO_Init+0x2b8>)
 8000920:	693a      	ldr	r2, [r7, #16]
 8000922:	601a      	str	r2, [r3, #0]

        temp = EXTI->FTSR1;
 8000924:	4b28      	ldr	r3, [pc, #160]	@ (80009c8 <HAL_GPIO_Init+0x2b8>)
 8000926:	685b      	ldr	r3, [r3, #4]
 8000928:	613b      	str	r3, [r7, #16]
        temp &= ~(iocurrent);
 800092a:	68fb      	ldr	r3, [r7, #12]
 800092c:	43da      	mvns	r2, r3
 800092e:	693b      	ldr	r3, [r7, #16]
 8000930:	4013      	ands	r3, r2
 8000932:	613b      	str	r3, [r7, #16]
        if ((GPIO_Init->Mode & TRIGGER_FALLING) != 0x00u)
 8000934:	683b      	ldr	r3, [r7, #0]
 8000936:	685a      	ldr	r2, [r3, #4]
 8000938:	2380      	movs	r3, #128	@ 0x80
 800093a:	039b      	lsls	r3, r3, #14
 800093c:	4013      	ands	r3, r2
 800093e:	d003      	beq.n	8000948 <HAL_GPIO_Init+0x238>
        {
          temp |= iocurrent;
 8000940:	693a      	ldr	r2, [r7, #16]
 8000942:	68fb      	ldr	r3, [r7, #12]
 8000944:	4313      	orrs	r3, r2
 8000946:	613b      	str	r3, [r7, #16]
        }
        EXTI->FTSR1 = temp;
 8000948:	4b1f      	ldr	r3, [pc, #124]	@ (80009c8 <HAL_GPIO_Init+0x2b8>)
 800094a:	693a      	ldr	r2, [r7, #16]
 800094c:	605a      	str	r2, [r3, #4]

        /* Clear EXTI line configuration */
        temp = EXTI->EMR1;
 800094e:	4a1e      	ldr	r2, [pc, #120]	@ (80009c8 <HAL_GPIO_Init+0x2b8>)
 8000950:	2384      	movs	r3, #132	@ 0x84
 8000952:	58d3      	ldr	r3, [r2, r3]
 8000954:	613b      	str	r3, [r7, #16]
        temp &= ~(iocurrent);
 8000956:	68fb      	ldr	r3, [r7, #12]
 8000958:	43da      	mvns	r2, r3
 800095a:	693b      	ldr	r3, [r7, #16]
 800095c:	4013      	ands	r3, r2
 800095e:	613b      	str	r3, [r7, #16]
        if ((GPIO_Init->Mode & EXTI_EVT) != 0x00u)
 8000960:	683b      	ldr	r3, [r7, #0]
 8000962:	685a      	ldr	r2, [r3, #4]
 8000964:	2380      	movs	r3, #128	@ 0x80
 8000966:	029b      	lsls	r3, r3, #10
 8000968:	4013      	ands	r3, r2
 800096a:	d003      	beq.n	8000974 <HAL_GPIO_Init+0x264>
        {
          temp |= iocurrent;
 800096c:	693a      	ldr	r2, [r7, #16]
 800096e:	68fb      	ldr	r3, [r7, #12]
 8000970:	4313      	orrs	r3, r2
 8000972:	613b      	str	r3, [r7, #16]
        }
        EXTI->EMR1 = temp;
 8000974:	4914      	ldr	r1, [pc, #80]	@ (80009c8 <HAL_GPIO_Init+0x2b8>)
 8000976:	2284      	movs	r2, #132	@ 0x84
 8000978:	693b      	ldr	r3, [r7, #16]
 800097a:	508b      	str	r3, [r1, r2]

        temp = EXTI->IMR1;
 800097c:	4a12      	ldr	r2, [pc, #72]	@ (80009c8 <HAL_GPIO_Init+0x2b8>)
 800097e:	2380      	movs	r3, #128	@ 0x80
 8000980:	58d3      	ldr	r3, [r2, r3]
 8000982:	613b      	str	r3, [r7, #16]
        temp &= ~(iocurrent);
 8000984:	68fb      	ldr	r3, [r7, #12]
 8000986:	43da      	mvns	r2, r3
 8000988:	693b      	ldr	r3, [r7, #16]
 800098a:	4013      	ands	r3, r2
 800098c:	613b      	str	r3, [r7, #16]
        if ((GPIO_Init->Mode & EXTI_IT) != 0x00u)
 800098e:	683b      	ldr	r3, [r7, #0]
 8000990:	685a      	ldr	r2, [r3, #4]
 8000992:	2380      	movs	r3, #128	@ 0x80
 8000994:	025b      	lsls	r3, r3, #9
 8000996:	4013      	ands	r3, r2
 8000998:	d003      	beq.n	80009a2 <HAL_GPIO_Init+0x292>
        {
          temp |= iocurrent;
 800099a:	693a      	ldr	r2, [r7, #16]
 800099c:	68fb      	ldr	r3, [r7, #12]
 800099e:	4313      	orrs	r3, r2
 80009a0:	613b      	str	r3, [r7, #16]
        }
        EXTI->IMR1 = temp;
 80009a2:	4909      	ldr	r1, [pc, #36]	@ (80009c8 <HAL_GPIO_Init+0x2b8>)
 80009a4:	2280      	movs	r2, #128	@ 0x80
 80009a6:	693b      	ldr	r3, [r7, #16]
 80009a8:	508b      	str	r3, [r1, r2]
      }
    }

    position++;
 80009aa:	697b      	ldr	r3, [r7, #20]
 80009ac:	3301      	adds	r3, #1
 80009ae:	617b      	str	r3, [r7, #20]
  while (((GPIO_Init->Pin) >> position) != 0x00u)
 80009b0:	683b      	ldr	r3, [r7, #0]
 80009b2:	681a      	ldr	r2, [r3, #0]
 80009b4:	697b      	ldr	r3, [r7, #20]
 80009b6:	40da      	lsrs	r2, r3
 80009b8:	1e13      	subs	r3, r2, #0
 80009ba:	d000      	beq.n	80009be <HAL_GPIO_Init+0x2ae>
 80009bc:	e6b0      	b.n	8000720 <HAL_GPIO_Init+0x10>
  }
}
 80009be:	46c0      	nop			@ (mov r8, r8)
 80009c0:	46c0      	nop			@ (mov r8, r8)
 80009c2:	46bd      	mov	sp, r7
 80009c4:	b006      	add	sp, #24
 80009c6:	bd80      	pop	{r7, pc}
 80009c8:	40021800 	.word	0x40021800
 80009cc:	50000400 	.word	0x50000400
 80009d0:	50000800 	.word	0x50000800
 80009d4:	50000c00 	.word	0x50000c00

080009d8 <HAL_GPIO_WritePin>:
  *            @arg GPIO_PIN_RESET: to clear the port pin
  *            @arg GPIO_PIN_SET: to set the port pin
  * @retval None
  */
void HAL_GPIO_WritePin(GPIO_TypeDef *GPIOx, uint16_t GPIO_Pin, GPIO_PinState PinState)
{
 80009d8:	b580      	push	{r7, lr}
 80009da:	b082      	sub	sp, #8
 80009dc:	af00      	add	r7, sp, #0
 80009de:	6078      	str	r0, [r7, #4]
 80009e0:	0008      	movs	r0, r1
 80009e2:	0011      	movs	r1, r2
 80009e4:	1cbb      	adds	r3, r7, #2
 80009e6:	1c02      	adds	r2, r0, #0
 80009e8:	801a      	strh	r2, [r3, #0]
 80009ea:	1c7b      	adds	r3, r7, #1
 80009ec:	1c0a      	adds	r2, r1, #0
 80009ee:	701a      	strb	r2, [r3, #0]
  /* Check the parameters */
  assert_param(IS_GPIO_PIN(GPIO_Pin));
  assert_param(IS_GPIO_PIN_ACTION(PinState));

  if (PinState != GPIO_PIN_RESET)
 80009f0:	1c7b      	adds	r3, r7, #1
 80009f2:	781b      	ldrb	r3, [r3, #0]
 80009f4:	2b00      	cmp	r3, #0
 80009f6:	d004      	beq.n	8000a02 <HAL_GPIO_WritePin+0x2a>
  {
    GPIOx->BSRR = (uint32_t)GPIO_Pin;
 80009f8:	1cbb      	adds	r3, r7, #2
 80009fa:	881a      	ldrh	r2, [r3, #0]
 80009fc:	687b      	ldr	r3, [r7, #4]
 80009fe:	619a      	str	r2, [r3, #24]
  }
  else
  {
    GPIOx->BRR = (uint32_t)GPIO_Pin;
  }
}
 8000a00:	e003      	b.n	8000a0a <HAL_GPIO_WritePin+0x32>
    GPIOx->BRR = (uint32_t)GPIO_Pin;
 8000a02:	1cbb      	adds	r3, r7, #2
 8000a04:	881a      	ldrh	r2, [r3, #0]
 8000a06:	687b      	ldr	r3, [r7, #4]
 8000a08:	629a      	str	r2, [r3, #40]	@ 0x28
}
 8000a0a:	46c0      	nop			@ (mov r8, r8)
 8000a0c:	46bd      	mov	sp, r7
 8000a0e:	b002      	add	sp, #8
 8000a10:	bd80      	pop	{r7, pc}

08000a12 <HAL_GPIO_TogglePin>:
  * @param  GPIO_Pin specifies the pin to be toggled.
  *         This parameter can be any combination of GPIO_Pin_x where x can be (0..15).
  * @retval None
  */
void HAL_GPIO_TogglePin(GPIO_TypeDef *GPIOx, uint16_t GPIO_Pin)
{
 8000a12:	b580      	push	{r7, lr}
 8000a14:	b084      	sub	sp, #16
 8000a16:	af00      	add	r7, sp, #0
 8000a18:	6078      	str	r0, [r7, #4]
 8000a1a:	000a      	movs	r2, r1
 8000a1c:	1cbb      	adds	r3, r7, #2
 8000a1e:	801a      	strh	r2, [r3, #0]

  /* Check the parameters */
  assert_param(IS_GPIO_PIN(GPIO_Pin));

  /* get current Output Data Register value */
  odr = GPIOx->ODR;
 8000a20:	687b      	ldr	r3, [r7, #4]
 8000a22:	695b      	ldr	r3, [r3, #20]
 8000a24:	60fb      	str	r3, [r7, #12]

  /* Set selected pins that were at low level, and reset ones that were high */
  GPIOx->BSRR = ((odr & GPIO_Pin) << GPIO_NUMBER) | (~odr & GPIO_Pin);
 8000a26:	1cbb      	adds	r3, r7, #2
 8000a28:	881b      	ldrh	r3, [r3, #0]
 8000a2a:	68fa      	ldr	r2, [r7, #12]
 8000a2c:	4013      	ands	r3, r2
 8000a2e:	041a      	lsls	r2, r3, #16
 8000a30:	68fb      	ldr	r3, [r7, #12]
 8000a32:	43db      	mvns	r3, r3
 8000a34:	1cb9      	adds	r1, r7, #2
 8000a36:	8809      	ldrh	r1, [r1, #0]
 8000a38:	400b      	ands	r3, r1
 8000a3a:	431a      	orrs	r2, r3
 8000a3c:	687b      	ldr	r3, [r7, #4]
 8000a3e:	619a      	str	r2, [r3, #24]
}
 8000a40:	46c0      	nop			@ (mov r8, r8)
 8000a42:	46bd      	mov	sp, r7
 8000a44:	b004      	add	sp, #16
 8000a46:	bd80      	pop	{r7, pc}

08000a48 <HAL_PWREx_ControlVoltageScaling>:
  *        cleared before returning the status. If the flag is not cleared within
  *        6 microseconds, HAL_TIMEOUT status is reported.
  * @retval HAL Status
  */
HAL_StatusTypeDef HAL_PWREx_ControlVoltageScaling(uint32_t VoltageScaling)
{
 8000a48:	b580      	push	{r7, lr}
 8000a4a:	b084      	sub	sp, #16
 8000a4c:	af00      	add	r7, sp, #0
 8000a4e:	6078      	str	r0, [r7, #4]
  uint32_t wait_loop_index;

  assert_param(IS_PWR_VOLTAGE_SCALING_RANGE(VoltageScaling));

  /* Modify voltage scaling range */
  MODIFY_REG(PWR->CR1, PWR_CR1_VOS, VoltageScaling);
 8000a50:	4b19      	ldr	r3, [pc, #100]	@ (8000ab8 <HAL_PWREx_ControlVoltageScaling+0x70>)
 8000a52:	681b      	ldr	r3, [r3, #0]
 8000a54:	4a19      	ldr	r2, [pc, #100]	@ (8000abc <HAL_PWREx_ControlVoltageScaling+0x74>)
 8000a56:	4013      	ands	r3, r2
 8000a58:	0019      	movs	r1, r3
 8000a5a:	4b17      	ldr	r3, [pc, #92]	@ (8000ab8 <HAL_PWREx_ControlVoltageScaling+0x70>)
 8000a5c:	687a      	ldr	r2, [r7, #4]
 8000a5e:	430a      	orrs	r2, r1
 8000a60:	601a      	str	r2, [r3, #0]

  /* In case of Range 1 selected, we need to ensure that main regulator reaches new value */
  if (VoltageScaling == PWR_REGULATOR_VOLTAGE_SCALE1)
 8000a62:	687a      	ldr	r2, [r7, #4]
 8000a64:	2380      	movs	r3, #128	@ 0x80
 8000a66:	009b      	lsls	r3, r3, #2
 8000a68:	429a      	cmp	r2, r3
 8000a6a:	d11f      	bne.n	8000aac <HAL_PWREx_ControlVoltageScaling+0x64>
  {
    /* Set timeout value */
    wait_loop_index = ((PWR_VOSF_SETTING_DELAY_6_US * SystemCoreClock) / 1000000U) + 1U;
 8000a6c:	4b14      	ldr	r3, [pc, #80]	@ (8000ac0 <HAL_PWREx_ControlVoltageScaling+0x78>)
 8000a6e:	681a      	ldr	r2, [r3, #0]
 8000a70:	0013      	movs	r3, r2
 8000a72:	005b      	lsls	r3, r3, #1
 8000a74:	189b      	adds	r3, r3, r2
 8000a76:	005b      	lsls	r3, r3, #1
 8000a78:	4912      	ldr	r1, [pc, #72]	@ (8000ac4 <HAL_PWREx_ControlVoltageScaling+0x7c>)
 8000a7a:	0018      	movs	r0, r3
 8000a7c:	f7ff fb42 	bl	8000104 <__udivsi3>
 8000a80:	0003      	movs	r3, r0
 8000a82:	3301      	adds	r3, #1
 8000a84:	60fb      	str	r3, [r7, #12]

    /* Wait until VOSF is reset */
    while (HAL_IS_BIT_SET(PWR->SR2, PWR_SR2_VOSF))
 8000a86:	e008      	b.n	8000a9a <HAL_PWREx_ControlVoltageScaling+0x52>
    {
      if (wait_loop_index != 0U)
 8000a88:	68fb      	ldr	r3, [r7, #12]
 8000a8a:	2b00      	cmp	r3, #0
 8000a8c:	d003      	beq.n	8000a96 <HAL_PWREx_ControlVoltageScaling+0x4e>
      {
        wait_loop_index--;
 8000a8e:	68fb      	ldr	r3, [r7, #12]
 8000a90:	3b01      	subs	r3, #1
 8000a92:	60fb      	str	r3, [r7, #12]
 8000a94:	e001      	b.n	8000a9a <HAL_PWREx_ControlVoltageScaling+0x52>
      }
      else
      {
        return HAL_TIMEOUT;
 8000a96:	2303      	movs	r3, #3
 8000a98:	e009      	b.n	8000aae <HAL_PWREx_ControlVoltageScaling+0x66>
    while (HAL_IS_BIT_SET(PWR->SR2, PWR_SR2_VOSF))
 8000a9a:	4b07      	ldr	r3, [pc, #28]	@ (8000ab8 <HAL_PWREx_ControlVoltageScaling+0x70>)
 8000a9c:	695a      	ldr	r2, [r3, #20]
 8000a9e:	2380      	movs	r3, #128	@ 0x80
 8000aa0:	00db      	lsls	r3, r3, #3
 8000aa2:	401a      	ands	r2, r3
 8000aa4:	2380      	movs	r3, #128	@ 0x80
 8000aa6:	00db      	lsls	r3, r3, #3
 8000aa8:	429a      	cmp	r2, r3
 8000aaa:	d0ed      	beq.n	8000a88 <HAL_PWREx_ControlVoltageScaling+0x40>
      }
    }
  }

  return HAL_OK;
 8000aac:	2300      	movs	r3, #0
}
 8000aae:	0018      	movs	r0, r3
 8000ab0:	46bd      	mov	sp, r7
 8000ab2:	b004      	add	sp, #16
 8000ab4:	bd80      	pop	{r7, pc}
 8000ab6:	46c0      	nop			@ (mov r8, r8)
 8000ab8:	40007000 	.word	0x40007000
 8000abc:	fffff9ff 	.word	0xfffff9ff
 8000ac0:	20000000 	.word	0x20000000
 8000ac4:	000f4240 	.word	0x000f4240

08000ac8 <HAL_RCC_OscConfig>:
  *         supported by this function. User should request a transition to LSE Off
  *         first and then to LSE On or LSE Bypass.
  * @retval HAL status
  */
HAL_StatusTypeDef HAL_RCC_OscConfig(RCC_OscInitTypeDef  *RCC_OscInitStruct)
{
 8000ac8:	b580      	push	{r7, lr}
 8000aca:	b088      	sub	sp, #32
 8000acc:	af00      	add	r7, sp, #0
 8000ace:	6078      	str	r0, [r7, #4]
  uint32_t tickstart;
  uint32_t temp_sysclksrc;
  uint32_t temp_pllckcfg;

  /* Check Null pointer */
  if (RCC_OscInitStruct == NULL)
 8000ad0:	687b      	ldr	r3, [r7, #4]
 8000ad2:	2b00      	cmp	r3, #0
 8000ad4:	d101      	bne.n	8000ada <HAL_RCC_OscConfig+0x12>
  {
    return HAL_ERROR;
 8000ad6:	2301      	movs	r3, #1
 8000ad8:	e2fe      	b.n	80010d8 <HAL_RCC_OscConfig+0x610>

  /* Check the parameters */
  assert_param(IS_RCC_OSCILLATORTYPE(RCC_OscInitStruct->OscillatorType));

  /*------------------------------- HSE Configuration ------------------------*/
  if (((RCC_OscInitStruct->OscillatorType) & RCC_OSCILLATORTYPE_HSE) == RCC_OSCILLATORTYPE_HSE)
 8000ada:	687b      	ldr	r3, [r7, #4]
 8000adc:	681b      	ldr	r3, [r3, #0]
 8000ade:	2201      	movs	r2, #1
 8000ae0:	4013      	ands	r3, r2
 8000ae2:	d100      	bne.n	8000ae6 <HAL_RCC_OscConfig+0x1e>
 8000ae4:	e07c      	b.n	8000be0 <HAL_RCC_OscConfig+0x118>
  {
    /* Check the parameters */
    assert_param(IS_RCC_HSE(RCC_OscInitStruct->HSEState));

    temp_sysclksrc = __HAL_RCC_GET_SYSCLK_SOURCE();
 8000ae6:	4bc3      	ldr	r3, [pc, #780]	@ (8000df4 <HAL_RCC_OscConfig+0x32c>)
 8000ae8:	689b      	ldr	r3, [r3, #8]
 8000aea:	2238      	movs	r2, #56	@ 0x38
 8000aec:	4013      	ands	r3, r2
 8000aee:	61bb      	str	r3, [r7, #24]
    temp_pllckcfg = __HAL_RCC_GET_PLL_OSCSOURCE();
 8000af0:	4bc0      	ldr	r3, [pc, #768]	@ (8000df4 <HAL_RCC_OscConfig+0x32c>)
 8000af2:	68db      	ldr	r3, [r3, #12]
 8000af4:	2203      	movs	r2, #3
 8000af6:	4013      	ands	r3, r2
 8000af8:	617b      	str	r3, [r7, #20]

    /* When the HSE is used as system clock or clock source for PLL in these cases it is not allowed to be disabled */
    if (((temp_sysclksrc == RCC_SYSCLKSOURCE_STATUS_PLLCLK) && (temp_pllckcfg == RCC_PLLSOURCE_HSE))
 8000afa:	69bb      	ldr	r3, [r7, #24]
 8000afc:	2b10      	cmp	r3, #16
 8000afe:	d102      	bne.n	8000b06 <HAL_RCC_OscConfig+0x3e>
 8000b00:	697b      	ldr	r3, [r7, #20]
 8000b02:	2b03      	cmp	r3, #3
 8000b04:	d002      	beq.n	8000b0c <HAL_RCC_OscConfig+0x44>
        || (temp_sysclksrc == RCC_SYSCLKSOURCE_STATUS_HSE))
 8000b06:	69bb      	ldr	r3, [r7, #24]
 8000b08:	2b08      	cmp	r3, #8
 8000b0a:	d10b      	bne.n	8000b24 <HAL_RCC_OscConfig+0x5c>
    {
      if ((READ_BIT(RCC->CR, RCC_CR_HSERDY) != 0U) && (RCC_OscInitStruct->HSEState == RCC_HSE_OFF))
 8000b0c:	4bb9      	ldr	r3, [pc, #740]	@ (8000df4 <HAL_RCC_OscConfig+0x32c>)
 8000b0e:	681a      	ldr	r2, [r3, #0]
 8000b10:	2380      	movs	r3, #128	@ 0x80
 8000b12:	029b      	lsls	r3, r3, #10
 8000b14:	4013      	ands	r3, r2
 8000b16:	d062      	beq.n	8000bde <HAL_RCC_OscConfig+0x116>
 8000b18:	687b      	ldr	r3, [r7, #4]
 8000b1a:	685b      	ldr	r3, [r3, #4]
 8000b1c:	2b00      	cmp	r3, #0
 8000b1e:	d15e      	bne.n	8000bde <HAL_RCC_OscConfig+0x116>
      {
        return HAL_ERROR;
 8000b20:	2301      	movs	r3, #1
 8000b22:	e2d9      	b.n	80010d8 <HAL_RCC_OscConfig+0x610>
      }
    }
    else
    {
      /* Set the new HSE configuration ---------------------------------------*/
      __HAL_RCC_HSE_CONFIG(RCC_OscInitStruct->HSEState);
 8000b24:	687b      	ldr	r3, [r7, #4]
 8000b26:	685a      	ldr	r2, [r3, #4]
 8000b28:	2380      	movs	r3, #128	@ 0x80
 8000b2a:	025b      	lsls	r3, r3, #9
 8000b2c:	429a      	cmp	r2, r3
 8000b2e:	d107      	bne.n	8000b40 <HAL_RCC_OscConfig+0x78>
 8000b30:	4bb0      	ldr	r3, [pc, #704]	@ (8000df4 <HAL_RCC_OscConfig+0x32c>)
 8000b32:	681a      	ldr	r2, [r3, #0]
 8000b34:	4baf      	ldr	r3, [pc, #700]	@ (8000df4 <HAL_RCC_OscConfig+0x32c>)
 8000b36:	2180      	movs	r1, #128	@ 0x80
 8000b38:	0249      	lsls	r1, r1, #9
 8000b3a:	430a      	orrs	r2, r1
 8000b3c:	601a      	str	r2, [r3, #0]
 8000b3e:	e020      	b.n	8000b82 <HAL_RCC_OscConfig+0xba>
 8000b40:	687b      	ldr	r3, [r7, #4]
 8000b42:	685a      	ldr	r2, [r3, #4]
 8000b44:	23a0      	movs	r3, #160	@ 0xa0
 8000b46:	02db      	lsls	r3, r3, #11
 8000b48:	429a      	cmp	r2, r3
 8000b4a:	d10e      	bne.n	8000b6a <HAL_RCC_OscConfig+0xa2>
 8000b4c:	4ba9      	ldr	r3, [pc, #676]	@ (8000df4 <HAL_RCC_OscConfig+0x32c>)
 8000b4e:	681a      	ldr	r2, [r3, #0]
 8000b50:	4ba8      	ldr	r3, [pc, #672]	@ (8000df4 <HAL_RCC_OscConfig+0x32c>)
 8000b52:	2180      	movs	r1, #128	@ 0x80
 8000b54:	02c9      	lsls	r1, r1, #11
 8000b56:	430a      	orrs	r2, r1
 8000b58:	601a      	str	r2, [r3, #0]
 8000b5a:	4ba6      	ldr	r3, [pc, #664]	@ (8000df4 <HAL_RCC_OscConfig+0x32c>)
 8000b5c:	681a      	ldr	r2, [r3, #0]
 8000b5e:	4ba5      	ldr	r3, [pc, #660]	@ (8000df4 <HAL_RCC_OscConfig+0x32c>)
 8000b60:	2180      	movs	r1, #128	@ 0x80
 8000b62:	0249      	lsls	r1, r1, #9
 8000b64:	430a      	orrs	r2, r1
 8000b66:	601a      	str	r2, [r3, #0]
 8000b68:	e00b      	b.n	8000b82 <HAL_RCC_OscConfig+0xba>
 8000b6a:	4ba2      	ldr	r3, [pc, #648]	@ (8000df4 <HAL_RCC_OscConfig+0x32c>)
 8000b6c:	681a      	ldr	r2, [r3, #0]
 8000b6e:	4ba1      	ldr	r3, [pc, #644]	@ (8000df4 <HAL_RCC_OscConfig+0x32c>)
 8000b70:	49a1      	ldr	r1, [pc, #644]	@ (8000df8 <HAL_RCC_OscConfig+0x330>)
 8000b72:	400a      	ands	r2, r1
 8000b74:	601a      	str	r2, [r3, #0]
 8000b76:	4b9f      	ldr	r3, [pc, #636]	@ (8000df4 <HAL_RCC_OscConfig+0x32c>)
 8000b78:	681a      	ldr	r2, [r3, #0]
 8000b7a:	4b9e      	ldr	r3, [pc, #632]	@ (8000df4 <HAL_RCC_OscConfig+0x32c>)
 8000b7c:	499f      	ldr	r1, [pc, #636]	@ (8000dfc <HAL_RCC_OscConfig+0x334>)
 8000b7e:	400a      	ands	r2, r1
 8000b80:	601a      	str	r2, [r3, #0]

      /* Check the HSE State */
      if (RCC_OscInitStruct->HSEState != RCC_HSE_OFF)
 8000b82:	687b      	ldr	r3, [r7, #4]
 8000b84:	685b      	ldr	r3, [r3, #4]
 8000b86:	2b00      	cmp	r3, #0
 8000b88:	d014      	beq.n	8000bb4 <HAL_RCC_OscConfig+0xec>
      {
        /* Get Start Tick*/
        tickstart = HAL_GetTick();
 8000b8a:	f7ff fcdf 	bl	800054c <HAL_GetTick>
 8000b8e:	0003      	movs	r3, r0
 8000b90:	613b      	str	r3, [r7, #16]

        /* Wait till HSE is ready */
        while (READ_BIT(RCC->CR, RCC_CR_HSERDY) == 0U)
 8000b92:	e008      	b.n	8000ba6 <HAL_RCC_OscConfig+0xde>
        {
          if ((HAL_GetTick() - tickstart) > HSE_TIMEOUT_VALUE)
 8000b94:	f7ff fcda 	bl	800054c <HAL_GetTick>
 8000b98:	0002      	movs	r2, r0
 8000b9a:	693b      	ldr	r3, [r7, #16]
 8000b9c:	1ad3      	subs	r3, r2, r3
 8000b9e:	2b64      	cmp	r3, #100	@ 0x64
 8000ba0:	d901      	bls.n	8000ba6 <HAL_RCC_OscConfig+0xde>
          {
            return HAL_TIMEOUT;
 8000ba2:	2303      	movs	r3, #3
 8000ba4:	e298      	b.n	80010d8 <HAL_RCC_OscConfig+0x610>
        while (READ_BIT(RCC->CR, RCC_CR_HSERDY) == 0U)
 8000ba6:	4b93      	ldr	r3, [pc, #588]	@ (8000df4 <HAL_RCC_OscConfig+0x32c>)
 8000ba8:	681a      	ldr	r2, [r3, #0]
 8000baa:	2380      	movs	r3, #128	@ 0x80
 8000bac:	029b      	lsls	r3, r3, #10
 8000bae:	4013      	ands	r3, r2
 8000bb0:	d0f0      	beq.n	8000b94 <HAL_RCC_OscConfig+0xcc>
 8000bb2:	e015      	b.n	8000be0 <HAL_RCC_OscConfig+0x118>
        }
      }
      else
      {
        /* Get Start Tick*/
        tickstart = HAL_GetTick();
 8000bb4:	f7ff fcca 	bl	800054c <HAL_GetTick>
 8000bb8:	0003      	movs	r3, r0
 8000bba:	613b      	str	r3, [r7, #16]

        /* Wait till HSE is disabled */
        while (READ_BIT(RCC->CR, RCC_CR_HSERDY) != 0U)
 8000bbc:	e008      	b.n	8000bd0 <HAL_RCC_OscConfig+0x108>
        {
          if ((HAL_GetTick() - tickstart) > HSE_TIMEOUT_VALUE)
 8000bbe:	f7ff fcc5 	bl	800054c <HAL_GetTick>
 8000bc2:	0002      	movs	r2, r0
 8000bc4:	693b      	ldr	r3, [r7, #16]
 8000bc6:	1ad3      	subs	r3, r2, r3
 8000bc8:	2b64      	cmp	r3, #100	@ 0x64
 8000bca:	d901      	bls.n	8000bd0 <HAL_RCC_OscConfig+0x108>
          {
            return HAL_TIMEOUT;
 8000bcc:	2303      	movs	r3, #3
 8000bce:	e283      	b.n	80010d8 <HAL_RCC_OscConfig+0x610>
        while (READ_BIT(RCC->CR, RCC_CR_HSERDY) != 0U)
 8000bd0:	4b88      	ldr	r3, [pc, #544]	@ (8000df4 <HAL_RCC_OscConfig+0x32c>)
 8000bd2:	681a      	ldr	r2, [r3, #0]
 8000bd4:	2380      	movs	r3, #128	@ 0x80
 8000bd6:	029b      	lsls	r3, r3, #10
 8000bd8:	4013      	ands	r3, r2
 8000bda:	d1f0      	bne.n	8000bbe <HAL_RCC_OscConfig+0xf6>
 8000bdc:	e000      	b.n	8000be0 <HAL_RCC_OscConfig+0x118>
      if ((READ_BIT(RCC->CR, RCC_CR_HSERDY) != 0U) && (RCC_OscInitStruct->HSEState == RCC_HSE_OFF))
 8000bde:	46c0      	nop			@ (mov r8, r8)
        }
      }
    }
  }
  /*----------------------------- HSI Configuration --------------------------*/
  if (((RCC_OscInitStruct->OscillatorType) & RCC_OSCILLATORTYPE_HSI) == RCC_OSCILLATORTYPE_HSI)
 8000be0:	687b      	ldr	r3, [r7, #4]
 8000be2:	681b      	ldr	r3, [r3, #0]
 8000be4:	2202      	movs	r2, #2
 8000be6:	4013      	ands	r3, r2
 8000be8:	d100      	bne.n	8000bec <HAL_RCC_OscConfig+0x124>
 8000bea:	e099      	b.n	8000d20 <HAL_RCC_OscConfig+0x258>
    assert_param(IS_RCC_HSI(RCC_OscInitStruct->HSIState));
    assert_param(IS_RCC_HSI_CALIBRATION_VALUE(RCC_OscInitStruct->HSICalibrationValue));
    assert_param(IS_RCC_HSIDIV(RCC_OscInitStruct->HSIDiv));

    /* Check if HSI16 is used as system clock or as PLL source when PLL is selected as system clock */
    temp_sysclksrc = __HAL_RCC_GET_SYSCLK_SOURCE();
 8000bec:	4b81      	ldr	r3, [pc, #516]	@ (8000df4 <HAL_RCC_OscConfig+0x32c>)
 8000bee:	689b      	ldr	r3, [r3, #8]
 8000bf0:	2238      	movs	r2, #56	@ 0x38
 8000bf2:	4013      	ands	r3, r2
 8000bf4:	61bb      	str	r3, [r7, #24]
    temp_pllckcfg = __HAL_RCC_GET_PLL_OSCSOURCE();
 8000bf6:	4b7f      	ldr	r3, [pc, #508]	@ (8000df4 <HAL_RCC_OscConfig+0x32c>)
 8000bf8:	68db      	ldr	r3, [r3, #12]
 8000bfa:	2203      	movs	r2, #3
 8000bfc:	4013      	ands	r3, r2
 8000bfe:	617b      	str	r3, [r7, #20]
    if (((temp_sysclksrc == RCC_SYSCLKSOURCE_STATUS_PLLCLK) && (temp_pllckcfg == RCC_PLLSOURCE_HSI))
 8000c00:	69bb      	ldr	r3, [r7, #24]
 8000c02:	2b10      	cmp	r3, #16
 8000c04:	d102      	bne.n	8000c0c <HAL_RCC_OscConfig+0x144>
 8000c06:	697b      	ldr	r3, [r7, #20]
 8000c08:	2b02      	cmp	r3, #2
 8000c0a:	d002      	beq.n	8000c12 <HAL_RCC_OscConfig+0x14a>
        || (temp_sysclksrc == RCC_SYSCLKSOURCE_STATUS_HSI))
 8000c0c:	69bb      	ldr	r3, [r7, #24]
 8000c0e:	2b00      	cmp	r3, #0
 8000c10:	d135      	bne.n	8000c7e <HAL_RCC_OscConfig+0x1b6>
    {
      /* When HSI is used as system clock or as PLL input clock it can not be disabled */
      if ((READ_BIT(RCC->CR, RCC_CR_HSIRDY) != 0U) && (RCC_OscInitStruct->HSIState == RCC_HSI_OFF))
 8000c12:	4b78      	ldr	r3, [pc, #480]	@ (8000df4 <HAL_RCC_OscConfig+0x32c>)
 8000c14:	681a      	ldr	r2, [r3, #0]
 8000c16:	2380      	movs	r3, #128	@ 0x80
 8000c18:	00db      	lsls	r3, r3, #3
 8000c1a:	4013      	ands	r3, r2
 8000c1c:	d005      	beq.n	8000c2a <HAL_RCC_OscConfig+0x162>
 8000c1e:	687b      	ldr	r3, [r7, #4]
 8000c20:	68db      	ldr	r3, [r3, #12]
 8000c22:	2b00      	cmp	r3, #0
 8000c24:	d101      	bne.n	8000c2a <HAL_RCC_OscConfig+0x162>
      {
        return HAL_ERROR;
 8000c26:	2301      	movs	r3, #1
 8000c28:	e256      	b.n	80010d8 <HAL_RCC_OscConfig+0x610>
      }
      /* Otherwise, just the calibration is allowed */
      else
      {
        /* Adjusts the Internal High Speed oscillator (HSI) calibration value.*/
        __HAL_RCC_HSI_CALIBRATIONVALUE_ADJUST(RCC_OscInitStruct->HSICalibrationValue);
 8000c2a:	4b72      	ldr	r3, [pc, #456]	@ (8000df4 <HAL_RCC_OscConfig+0x32c>)
 8000c2c:	685b      	ldr	r3, [r3, #4]
 8000c2e:	4a74      	ldr	r2, [pc, #464]	@ (8000e00 <HAL_RCC_OscConfig+0x338>)
 8000c30:	4013      	ands	r3, r2
 8000c32:	0019      	movs	r1, r3
 8000c34:	687b      	ldr	r3, [r7, #4]
 8000c36:	695b      	ldr	r3, [r3, #20]
 8000c38:	021a      	lsls	r2, r3, #8
 8000c3a:	4b6e      	ldr	r3, [pc, #440]	@ (8000df4 <HAL_RCC_OscConfig+0x32c>)
 8000c3c:	430a      	orrs	r2, r1
 8000c3e:	605a      	str	r2, [r3, #4]

        if (temp_sysclksrc == RCC_SYSCLKSOURCE_STATUS_HSI)
 8000c40:	69bb      	ldr	r3, [r7, #24]
 8000c42:	2b00      	cmp	r3, #0
 8000c44:	d112      	bne.n	8000c6c <HAL_RCC_OscConfig+0x1a4>
        {
          /* Adjust the HSI16 division factor */
          __HAL_RCC_HSI_CONFIG(RCC_OscInitStruct->HSIDiv);
 8000c46:	4b6b      	ldr	r3, [pc, #428]	@ (8000df4 <HAL_RCC_OscConfig+0x32c>)
 8000c48:	681b      	ldr	r3, [r3, #0]
 8000c4a:	4a6e      	ldr	r2, [pc, #440]	@ (8000e04 <HAL_RCC_OscConfig+0x33c>)
 8000c4c:	4013      	ands	r3, r2
 8000c4e:	0019      	movs	r1, r3
 8000c50:	687b      	ldr	r3, [r7, #4]
 8000c52:	691a      	ldr	r2, [r3, #16]
 8000c54:	4b67      	ldr	r3, [pc, #412]	@ (8000df4 <HAL_RCC_OscConfig+0x32c>)
 8000c56:	430a      	orrs	r2, r1
 8000c58:	601a      	str	r2, [r3, #0]

          /* Update the SystemCoreClock global variable with HSISYS value  */
          SystemCoreClock = (HSI_VALUE / (1UL << ((READ_BIT(RCC->CR, RCC_CR_HSIDIV)) >> RCC_CR_HSIDIV_Pos)));
 8000c5a:	4b66      	ldr	r3, [pc, #408]	@ (8000df4 <HAL_RCC_OscConfig+0x32c>)
 8000c5c:	681b      	ldr	r3, [r3, #0]
 8000c5e:	0adb      	lsrs	r3, r3, #11
 8000c60:	2207      	movs	r2, #7
 8000c62:	4013      	ands	r3, r2
 8000c64:	4a68      	ldr	r2, [pc, #416]	@ (8000e08 <HAL_RCC_OscConfig+0x340>)
 8000c66:	40da      	lsrs	r2, r3
 8000c68:	4b68      	ldr	r3, [pc, #416]	@ (8000e0c <HAL_RCC_OscConfig+0x344>)
 8000c6a:	601a      	str	r2, [r3, #0]
        }

        /* Adapt Systick interrupt period */
        if (HAL_InitTick(uwTickPrio) != HAL_OK)
 8000c6c:	4b68      	ldr	r3, [pc, #416]	@ (8000e10 <HAL_RCC_OscConfig+0x348>)
 8000c6e:	681b      	ldr	r3, [r3, #0]
 8000c70:	0018      	movs	r0, r3
 8000c72:	f7ff fc0f 	bl	8000494 <HAL_InitTick>
 8000c76:	1e03      	subs	r3, r0, #0
 8000c78:	d051      	beq.n	8000d1e <HAL_RCC_OscConfig+0x256>
        {
          return HAL_ERROR;
 8000c7a:	2301      	movs	r3, #1
 8000c7c:	e22c      	b.n	80010d8 <HAL_RCC_OscConfig+0x610>
      }
    }
    else
    {
      /* Check the HSI State */
      if (RCC_OscInitStruct->HSIState != RCC_HSI_OFF)
 8000c7e:	687b      	ldr	r3, [r7, #4]
 8000c80:	68db      	ldr	r3, [r3, #12]
 8000c82:	2b00      	cmp	r3, #0
 8000c84:	d030      	beq.n	8000ce8 <HAL_RCC_OscConfig+0x220>
      {
        /* Configure the HSI16 division factor */
        __HAL_RCC_HSI_CONFIG(RCC_OscInitStruct->HSIDiv);
 8000c86:	4b5b      	ldr	r3, [pc, #364]	@ (8000df4 <HAL_RCC_OscConfig+0x32c>)
 8000c88:	681b      	ldr	r3, [r3, #0]
 8000c8a:	4a5e      	ldr	r2, [pc, #376]	@ (8000e04 <HAL_RCC_OscConfig+0x33c>)
 8000c8c:	4013      	ands	r3, r2
 8000c8e:	0019      	movs	r1, r3
 8000c90:	687b      	ldr	r3, [r7, #4]
 8000c92:	691a      	ldr	r2, [r3, #16]
 8000c94:	4b57      	ldr	r3, [pc, #348]	@ (8000df4 <HAL_RCC_OscConfig+0x32c>)
 8000c96:	430a      	orrs	r2, r1
 8000c98:	601a      	str	r2, [r3, #0]

        /* Enable the Internal High Speed oscillator (HSI16). */
        __HAL_RCC_HSI_ENABLE();
 8000c9a:	4b56      	ldr	r3, [pc, #344]	@ (8000df4 <HAL_RCC_OscConfig+0x32c>)
 8000c9c:	681a      	ldr	r2, [r3, #0]
 8000c9e:	4b55      	ldr	r3, [pc, #340]	@ (8000df4 <HAL_RCC_OscConfig+0x32c>)
 8000ca0:	2180      	movs	r1, #128	@ 0x80
 8000ca2:	0049      	lsls	r1, r1, #1
 8000ca4:	430a      	orrs	r2, r1
 8000ca6:	601a      	str	r2, [r3, #0]

        /* Get Start Tick*/
        tickstart = HAL_GetTick();
 8000ca8:	f7ff fc50 	bl	800054c <HAL_GetTick>
 8000cac:	0003      	movs	r3, r0
 8000cae:	613b      	str	r3, [r7, #16]

        /* Wait till HSI is ready */
        while (READ_BIT(RCC->CR, RCC_CR_HSIRDY) == 0U)
 8000cb0:	e008      	b.n	8000cc4 <HAL_RCC_OscConfig+0x1fc>
        {
          if ((HAL_GetTick() - tickstart) > HSI_TIMEOUT_VALUE)
 8000cb2:	f7ff fc4b 	bl	800054c <HAL_GetTick>
 8000cb6:	0002      	movs	r2, r0
 8000cb8:	693b      	ldr	r3, [r7, #16]
 8000cba:	1ad3      	subs	r3, r2, r3
 8000cbc:	2b02      	cmp	r3, #2
 8000cbe:	d901      	bls.n	8000cc4 <HAL_RCC_OscConfig+0x1fc>
          {
            return HAL_TIMEOUT;
 8000cc0:	2303      	movs	r3, #3
 8000cc2:	e209      	b.n	80010d8 <HAL_RCC_OscConfig+0x610>
        while (READ_BIT(RCC->CR, RCC_CR_HSIRDY) == 0U)
 8000cc4:	4b4b      	ldr	r3, [pc, #300]	@ (8000df4 <HAL_RCC_OscConfig+0x32c>)
 8000cc6:	681a      	ldr	r2, [r3, #0]
 8000cc8:	2380      	movs	r3, #128	@ 0x80
 8000cca:	00db      	lsls	r3, r3, #3
 8000ccc:	4013      	ands	r3, r2
 8000cce:	d0f0      	beq.n	8000cb2 <HAL_RCC_OscConfig+0x1ea>
          }
        }

        /* Adjusts the Internal High Speed oscillator (HSI) calibration value.*/
        __HAL_RCC_HSI_CALIBRATIONVALUE_ADJUST(RCC_OscInitStruct->HSICalibrationValue);
 8000cd0:	4b48      	ldr	r3, [pc, #288]	@ (8000df4 <HAL_RCC_OscConfig+0x32c>)
 8000cd2:	685b      	ldr	r3, [r3, #4]
 8000cd4:	4a4a      	ldr	r2, [pc, #296]	@ (8000e00 <HAL_RCC_OscConfig+0x338>)
 8000cd6:	4013      	ands	r3, r2
 8000cd8:	0019      	movs	r1, r3
 8000cda:	687b      	ldr	r3, [r7, #4]
 8000cdc:	695b      	ldr	r3, [r3, #20]
 8000cde:	021a      	lsls	r2, r3, #8
 8000ce0:	4b44      	ldr	r3, [pc, #272]	@ (8000df4 <HAL_RCC_OscConfig+0x32c>)
 8000ce2:	430a      	orrs	r2, r1
 8000ce4:	605a      	str	r2, [r3, #4]
 8000ce6:	e01b      	b.n	8000d20 <HAL_RCC_OscConfig+0x258>
      }
      else
      {
        /* Disable the Internal High Speed oscillator (HSI16). */
        __HAL_RCC_HSI_DISABLE();
 8000ce8:	4b42      	ldr	r3, [pc, #264]	@ (8000df4 <HAL_RCC_OscConfig+0x32c>)
 8000cea:	681a      	ldr	r2, [r3, #0]
 8000cec:	4b41      	ldr	r3, [pc, #260]	@ (8000df4 <HAL_RCC_OscConfig+0x32c>)
 8000cee:	4949      	ldr	r1, [pc, #292]	@ (8000e14 <HAL_RCC_OscConfig+0x34c>)
 8000cf0:	400a      	ands	r2, r1
 8000cf2:	601a      	str	r2, [r3, #0]

        /* Get Start Tick*/
        tickstart = HAL_GetTick();
 8000cf4:	f7ff fc2a 	bl	800054c <HAL_GetTick>
 8000cf8:	0003      	movs	r3, r0
 8000cfa:	613b      	str	r3, [r7, #16]

        /* Wait till HSI is disabled */
        while (READ_BIT(RCC->CR, RCC_CR_HSIRDY) != 0U)
 8000cfc:	e008      	b.n	8000d10 <HAL_RCC_OscConfig+0x248>
        {
          if ((HAL_GetTick() - tickstart) > HSI_TIMEOUT_VALUE)
 8000cfe:	f7ff fc25 	bl	800054c <HAL_GetTick>
 8000d02:	0002      	movs	r2, r0
 8000d04:	693b      	ldr	r3, [r7, #16]
 8000d06:	1ad3      	subs	r3, r2, r3
 8000d08:	2b02      	cmp	r3, #2
 8000d0a:	d901      	bls.n	8000d10 <HAL_RCC_OscConfig+0x248>
          {
            return HAL_TIMEOUT;
 8000d0c:	2303      	movs	r3, #3
 8000d0e:	e1e3      	b.n	80010d8 <HAL_RCC_OscConfig+0x610>
        while (READ_BIT(RCC->CR, RCC_CR_HSIRDY) != 0U)
 8000d10:	4b38      	ldr	r3, [pc, #224]	@ (8000df4 <HAL_RCC_OscConfig+0x32c>)
 8000d12:	681a      	ldr	r2, [r3, #0]
 8000d14:	2380      	movs	r3, #128	@ 0x80
 8000d16:	00db      	lsls	r3, r3, #3
 8000d18:	4013      	ands	r3, r2
 8000d1a:	d1f0      	bne.n	8000cfe <HAL_RCC_OscConfig+0x236>
 8000d1c:	e000      	b.n	8000d20 <HAL_RCC_OscConfig+0x258>
      if ((READ_BIT(RCC->CR, RCC_CR_HSIRDY) != 0U) && (RCC_OscInitStruct->HSIState == RCC_HSI_OFF))
 8000d1e:	46c0      	nop			@ (mov r8, r8)
        }
      }
    }
  }
  /*------------------------------ LSI Configuration -------------------------*/
  if (((RCC_OscInitStruct->OscillatorType) & RCC_OSCILLATORTYPE_LSI) == RCC_OSCILLATORTYPE_LSI)
 8000d20:	687b      	ldr	r3, [r7, #4]
 8000d22:	681b      	ldr	r3, [r3, #0]
 8000d24:	2208      	movs	r2, #8
 8000d26:	4013      	ands	r3, r2
 8000d28:	d047      	beq.n	8000dba <HAL_RCC_OscConfig+0x2f2>
  {
    /* Check the parameters */
    assert_param(IS_RCC_LSI(RCC_OscInitStruct->LSIState));

    /* Check if LSI is used as system clock */
    if (__HAL_RCC_GET_SYSCLK_SOURCE() == RCC_SYSCLKSOURCE_STATUS_LSI)
 8000d2a:	4b32      	ldr	r3, [pc, #200]	@ (8000df4 <HAL_RCC_OscConfig+0x32c>)
 8000d2c:	689b      	ldr	r3, [r3, #8]
 8000d2e:	2238      	movs	r2, #56	@ 0x38
 8000d30:	4013      	ands	r3, r2
 8000d32:	2b18      	cmp	r3, #24
 8000d34:	d10a      	bne.n	8000d4c <HAL_RCC_OscConfig+0x284>
    {
      /* When LSI is used as system clock it will not be disabled */
      if ((((RCC->CSR) & RCC_CSR_LSIRDY) != 0U) && (RCC_OscInitStruct->LSIState == RCC_LSI_OFF))
 8000d36:	4b2f      	ldr	r3, [pc, #188]	@ (8000df4 <HAL_RCC_OscConfig+0x32c>)
 8000d38:	6e1b      	ldr	r3, [r3, #96]	@ 0x60
 8000d3a:	2202      	movs	r2, #2
 8000d3c:	4013      	ands	r3, r2
 8000d3e:	d03c      	beq.n	8000dba <HAL_RCC_OscConfig+0x2f2>
 8000d40:	687b      	ldr	r3, [r7, #4]
 8000d42:	699b      	ldr	r3, [r3, #24]
 8000d44:	2b00      	cmp	r3, #0
 8000d46:	d138      	bne.n	8000dba <HAL_RCC_OscConfig+0x2f2>
      {
        return HAL_ERROR;
 8000d48:	2301      	movs	r3, #1
 8000d4a:	e1c5      	b.n	80010d8 <HAL_RCC_OscConfig+0x610>
      }
    }
    else
    {
      /* Check the LSI State */
      if (RCC_OscInitStruct->LSIState != RCC_LSI_OFF)
 8000d4c:	687b      	ldr	r3, [r7, #4]
 8000d4e:	699b      	ldr	r3, [r3, #24]
 8000d50:	2b00      	cmp	r3, #0
 8000d52:	d019      	beq.n	8000d88 <HAL_RCC_OscConfig+0x2c0>
      {
        /* Enable the Internal Low Speed oscillator (LSI). */
        __HAL_RCC_LSI_ENABLE();
 8000d54:	4b27      	ldr	r3, [pc, #156]	@ (8000df4 <HAL_RCC_OscConfig+0x32c>)
 8000d56:	6e1a      	ldr	r2, [r3, #96]	@ 0x60
 8000d58:	4b26      	ldr	r3, [pc, #152]	@ (8000df4 <HAL_RCC_OscConfig+0x32c>)
 8000d5a:	2101      	movs	r1, #1
 8000d5c:	430a      	orrs	r2, r1
 8000d5e:	661a      	str	r2, [r3, #96]	@ 0x60

        /* Get Start Tick*/
        tickstart = HAL_GetTick();
 8000d60:	f7ff fbf4 	bl	800054c <HAL_GetTick>
 8000d64:	0003      	movs	r3, r0
 8000d66:	613b      	str	r3, [r7, #16]

        /* Wait till LSI is ready */
        while (READ_BIT(RCC->CSR, RCC_CSR_LSIRDY) == 0U)
 8000d68:	e008      	b.n	8000d7c <HAL_RCC_OscConfig+0x2b4>
        {
          if ((HAL_GetTick() - tickstart) > LSI_TIMEOUT_VALUE)
 8000d6a:	f7ff fbef 	bl	800054c <HAL_GetTick>
 8000d6e:	0002      	movs	r2, r0
 8000d70:	693b      	ldr	r3, [r7, #16]
 8000d72:	1ad3      	subs	r3, r2, r3
 8000d74:	2b02      	cmp	r3, #2
 8000d76:	d901      	bls.n	8000d7c <HAL_RCC_OscConfig+0x2b4>
          {
            return HAL_TIMEOUT;
 8000d78:	2303      	movs	r3, #3
 8000d7a:	e1ad      	b.n	80010d8 <HAL_RCC_OscConfig+0x610>
        while (READ_BIT(RCC->CSR, RCC_CSR_LSIRDY) == 0U)
 8000d7c:	4b1d      	ldr	r3, [pc, #116]	@ (8000df4 <HAL_RCC_OscConfig+0x32c>)
 8000d7e:	6e1b      	ldr	r3, [r3, #96]	@ 0x60
 8000d80:	2202      	movs	r2, #2
 8000d82:	4013      	ands	r3, r2
 8000d84:	d0f1      	beq.n	8000d6a <HAL_RCC_OscConfig+0x2a2>
 8000d86:	e018      	b.n	8000dba <HAL_RCC_OscConfig+0x2f2>
        }
      }
      else
      {
        /* Disable the Internal Low Speed oscillator (LSI). */
        __HAL_RCC_LSI_DISABLE();
 8000d88:	4b1a      	ldr	r3, [pc, #104]	@ (8000df4 <HAL_RCC_OscConfig+0x32c>)
 8000d8a:	6e1a      	ldr	r2, [r3, #96]	@ 0x60
 8000d8c:	4b19      	ldr	r3, [pc, #100]	@ (8000df4 <HAL_RCC_OscConfig+0x32c>)
 8000d8e:	2101      	movs	r1, #1
 8000d90:	438a      	bics	r2, r1
 8000d92:	661a      	str	r2, [r3, #96]	@ 0x60

        /* Get Start Tick*/
        tickstart = HAL_GetTick();
 8000d94:	f7ff fbda 	bl	800054c <HAL_GetTick>
 8000d98:	0003      	movs	r3, r0
 8000d9a:	613b      	str	r3, [r7, #16]

        /* Wait till LSI is disabled */
        while (READ_BIT(RCC->CSR, RCC_CSR_LSIRDY) != 0U)
 8000d9c:	e008      	b.n	8000db0 <HAL_RCC_OscConfig+0x2e8>
        {
          if ((HAL_GetTick() - tickstart) > LSI_TIMEOUT_VALUE)
 8000d9e:	f7ff fbd5 	bl	800054c <HAL_GetTick>
 8000da2:	0002      	movs	r2, r0
 8000da4:	693b      	ldr	r3, [r7, #16]
 8000da6:	1ad3      	subs	r3, r2, r3
 8000da8:	2b02      	cmp	r3, #2
 8000daa:	d901      	bls.n	8000db0 <HAL_RCC_OscConfig+0x2e8>
          {
            return HAL_TIMEOUT;
 8000dac:	2303      	movs	r3, #3
 8000dae:	e193      	b.n	80010d8 <HAL_RCC_OscConfig+0x610>
        while (READ_BIT(RCC->CSR, RCC_CSR_LSIRDY) != 0U)
 8000db0:	4b10      	ldr	r3, [pc, #64]	@ (8000df4 <HAL_RCC_OscConfig+0x32c>)
 8000db2:	6e1b      	ldr	r3, [r3, #96]	@ 0x60
 8000db4:	2202      	movs	r2, #2
 8000db6:	4013      	ands	r3, r2
 8000db8:	d1f1      	bne.n	8000d9e <HAL_RCC_OscConfig+0x2d6>
        }
      }
    }
  }
  /*------------------------------ LSE Configuration -------------------------*/
  if (((RCC_OscInitStruct->OscillatorType) & RCC_OSCILLATORTYPE_LSE) == RCC_OSCILLATORTYPE_LSE)
 8000dba:	687b      	ldr	r3, [r7, #4]
 8000dbc:	681b      	ldr	r3, [r3, #0]
 8000dbe:	2204      	movs	r2, #4
 8000dc0:	4013      	ands	r3, r2
 8000dc2:	d100      	bne.n	8000dc6 <HAL_RCC_OscConfig+0x2fe>
 8000dc4:	e0c6      	b.n	8000f54 <HAL_RCC_OscConfig+0x48c>
  {
    FlagStatus       pwrclkchanged = RESET;
 8000dc6:	231f      	movs	r3, #31
 8000dc8:	18fb      	adds	r3, r7, r3
 8000dca:	2200      	movs	r2, #0
 8000dcc:	701a      	strb	r2, [r3, #0]

    /* Check the parameters */
    assert_param(IS_RCC_LSE(RCC_OscInitStruct->LSEState));

    /* When the LSE is used as system clock, it is not allowed disable it */
    if (__HAL_RCC_GET_SYSCLK_SOURCE() == RCC_SYSCLKSOURCE_STATUS_LSE)
 8000dce:	4b09      	ldr	r3, [pc, #36]	@ (8000df4 <HAL_RCC_OscConfig+0x32c>)
 8000dd0:	689b      	ldr	r3, [r3, #8]
 8000dd2:	2238      	movs	r2, #56	@ 0x38
 8000dd4:	4013      	ands	r3, r2
 8000dd6:	2b20      	cmp	r3, #32
 8000dd8:	d11e      	bne.n	8000e18 <HAL_RCC_OscConfig+0x350>
    {
      if ((((RCC->BDCR) & RCC_BDCR_LSERDY) != 0U) && (RCC_OscInitStruct->LSEState == RCC_LSE_OFF))
 8000dda:	4b06      	ldr	r3, [pc, #24]	@ (8000df4 <HAL_RCC_OscConfig+0x32c>)
 8000ddc:	6ddb      	ldr	r3, [r3, #92]	@ 0x5c
 8000dde:	2202      	movs	r2, #2
 8000de0:	4013      	ands	r3, r2
 8000de2:	d100      	bne.n	8000de6 <HAL_RCC_OscConfig+0x31e>
 8000de4:	e0b6      	b.n	8000f54 <HAL_RCC_OscConfig+0x48c>
 8000de6:	687b      	ldr	r3, [r7, #4]
 8000de8:	689b      	ldr	r3, [r3, #8]
 8000dea:	2b00      	cmp	r3, #0
 8000dec:	d000      	beq.n	8000df0 <HAL_RCC_OscConfig+0x328>
 8000dee:	e0b1      	b.n	8000f54 <HAL_RCC_OscConfig+0x48c>
      {
        return HAL_ERROR;
 8000df0:	2301      	movs	r3, #1
 8000df2:	e171      	b.n	80010d8 <HAL_RCC_OscConfig+0x610>
 8000df4:	40021000 	.word	0x40021000
 8000df8:	fffeffff 	.word	0xfffeffff
 8000dfc:	fffbffff 	.word	0xfffbffff
 8000e00:	ffff80ff 	.word	0xffff80ff
 8000e04:	ffffc7ff 	.word	0xffffc7ff
 8000e08:	00f42400 	.word	0x00f42400
 8000e0c:	20000000 	.word	0x20000000
 8000e10:	20000004 	.word	0x20000004
 8000e14:	fffffeff 	.word	0xfffffeff
    }
    else
    {
      /* Update LSE configuration in Backup Domain control register    */
      /* Requires to enable write access to Backup Domain of necessary */
      if (__HAL_RCC_PWR_IS_CLK_DISABLED() != 0U)
 8000e18:	4bb1      	ldr	r3, [pc, #708]	@ (80010e0 <HAL_RCC_OscConfig+0x618>)
 8000e1a:	6bda      	ldr	r2, [r3, #60]	@ 0x3c
 8000e1c:	2380      	movs	r3, #128	@ 0x80
 8000e1e:	055b      	lsls	r3, r3, #21
 8000e20:	4013      	ands	r3, r2
 8000e22:	d101      	bne.n	8000e28 <HAL_RCC_OscConfig+0x360>
 8000e24:	2301      	movs	r3, #1
 8000e26:	e000      	b.n	8000e2a <HAL_RCC_OscConfig+0x362>
 8000e28:	2300      	movs	r3, #0
 8000e2a:	2b00      	cmp	r3, #0
 8000e2c:	d011      	beq.n	8000e52 <HAL_RCC_OscConfig+0x38a>
      {
        __HAL_RCC_PWR_CLK_ENABLE();
 8000e2e:	4bac      	ldr	r3, [pc, #688]	@ (80010e0 <HAL_RCC_OscConfig+0x618>)
 8000e30:	6bda      	ldr	r2, [r3, #60]	@ 0x3c
 8000e32:	4bab      	ldr	r3, [pc, #684]	@ (80010e0 <HAL_RCC_OscConfig+0x618>)
 8000e34:	2180      	movs	r1, #128	@ 0x80
 8000e36:	0549      	lsls	r1, r1, #21
 8000e38:	430a      	orrs	r2, r1
 8000e3a:	63da      	str	r2, [r3, #60]	@ 0x3c
 8000e3c:	4ba8      	ldr	r3, [pc, #672]	@ (80010e0 <HAL_RCC_OscConfig+0x618>)
 8000e3e:	6bda      	ldr	r2, [r3, #60]	@ 0x3c
 8000e40:	2380      	movs	r3, #128	@ 0x80
 8000e42:	055b      	lsls	r3, r3, #21
 8000e44:	4013      	ands	r3, r2
 8000e46:	60fb      	str	r3, [r7, #12]
 8000e48:	68fb      	ldr	r3, [r7, #12]
        pwrclkchanged = SET;
 8000e4a:	231f      	movs	r3, #31
 8000e4c:	18fb      	adds	r3, r7, r3
 8000e4e:	2201      	movs	r2, #1
 8000e50:	701a      	strb	r2, [r3, #0]
      }

      if (HAL_IS_BIT_CLR(PWR->CR1, PWR_CR1_DBP))
 8000e52:	4ba4      	ldr	r3, [pc, #656]	@ (80010e4 <HAL_RCC_OscConfig+0x61c>)
 8000e54:	681a      	ldr	r2, [r3, #0]
 8000e56:	2380      	movs	r3, #128	@ 0x80
 8000e58:	005b      	lsls	r3, r3, #1
 8000e5a:	4013      	ands	r3, r2
 8000e5c:	d11a      	bne.n	8000e94 <HAL_RCC_OscConfig+0x3cc>
      {
        /* Enable write access to Backup domain */
        SET_BIT(PWR->CR1, PWR_CR1_DBP);
 8000e5e:	4ba1      	ldr	r3, [pc, #644]	@ (80010e4 <HAL_RCC_OscConfig+0x61c>)
 8000e60:	681a      	ldr	r2, [r3, #0]
 8000e62:	4ba0      	ldr	r3, [pc, #640]	@ (80010e4 <HAL_RCC_OscConfig+0x61c>)
 8000e64:	2180      	movs	r1, #128	@ 0x80
 8000e66:	0049      	lsls	r1, r1, #1
 8000e68:	430a      	orrs	r2, r1
 8000e6a:	601a      	str	r2, [r3, #0]

        /* Wait for Backup domain Write protection disable */
        tickstart = HAL_GetTick();
 8000e6c:	f7ff fb6e 	bl	800054c <HAL_GetTick>
 8000e70:	0003      	movs	r3, r0
 8000e72:	613b      	str	r3, [r7, #16]

        while (HAL_IS_BIT_CLR(PWR->CR1, PWR_CR1_DBP))
 8000e74:	e008      	b.n	8000e88 <HAL_RCC_OscConfig+0x3c0>
        {
          if ((HAL_GetTick() - tickstart) > RCC_DBP_TIMEOUT_VALUE)
 8000e76:	f7ff fb69 	bl	800054c <HAL_GetTick>
 8000e7a:	0002      	movs	r2, r0
 8000e7c:	693b      	ldr	r3, [r7, #16]
 8000e7e:	1ad3      	subs	r3, r2, r3
 8000e80:	2b02      	cmp	r3, #2
 8000e82:	d901      	bls.n	8000e88 <HAL_RCC_OscConfig+0x3c0>
          {
            return HAL_TIMEOUT;
 8000e84:	2303      	movs	r3, #3
 8000e86:	e127      	b.n	80010d8 <HAL_RCC_OscConfig+0x610>
        while (HAL_IS_BIT_CLR(PWR->CR1, PWR_CR1_DBP))
 8000e88:	4b96      	ldr	r3, [pc, #600]	@ (80010e4 <HAL_RCC_OscConfig+0x61c>)
 8000e8a:	681a      	ldr	r2, [r3, #0]
 8000e8c:	2380      	movs	r3, #128	@ 0x80
 8000e8e:	005b      	lsls	r3, r3, #1
 8000e90:	4013      	ands	r3, r2
 8000e92:	d0f0      	beq.n	8000e76 <HAL_RCC_OscConfig+0x3ae>
          }
        }
      }

      /* Set the new LSE configuration -----------------------------------------*/
      __HAL_RCC_LSE_CONFIG(RCC_OscInitStruct->LSEState);
 8000e94:	687b      	ldr	r3, [r7, #4]
 8000e96:	689b      	ldr	r3, [r3, #8]
 8000e98:	2b01      	cmp	r3, #1
 8000e9a:	d106      	bne.n	8000eaa <HAL_RCC_OscConfig+0x3e2>
 8000e9c:	4b90      	ldr	r3, [pc, #576]	@ (80010e0 <HAL_RCC_OscConfig+0x618>)
 8000e9e:	6dda      	ldr	r2, [r3, #92]	@ 0x5c
 8000ea0:	4b8f      	ldr	r3, [pc, #572]	@ (80010e0 <HAL_RCC_OscConfig+0x618>)
 8000ea2:	2101      	movs	r1, #1
 8000ea4:	430a      	orrs	r2, r1
 8000ea6:	65da      	str	r2, [r3, #92]	@ 0x5c
 8000ea8:	e01c      	b.n	8000ee4 <HAL_RCC_OscConfig+0x41c>
 8000eaa:	687b      	ldr	r3, [r7, #4]
 8000eac:	689b      	ldr	r3, [r3, #8]
 8000eae:	2b05      	cmp	r3, #5
 8000eb0:	d10c      	bne.n	8000ecc <HAL_RCC_OscConfig+0x404>
 8000eb2:	4b8b      	ldr	r3, [pc, #556]	@ (80010e0 <HAL_RCC_OscConfig+0x618>)
 8000eb4:	6dda      	ldr	r2, [r3, #92]	@ 0x5c
 8000eb6:	4b8a      	ldr	r3, [pc, #552]	@ (80010e0 <HAL_RCC_OscConfig+0x618>)
 8000eb8:	2104      	movs	r1, #4
 8000eba:	430a      	orrs	r2, r1
 8000ebc:	65da      	str	r2, [r3, #92]	@ 0x5c
 8000ebe:	4b88      	ldr	r3, [pc, #544]	@ (80010e0 <HAL_RCC_OscConfig+0x618>)
 8000ec0:	6dda      	ldr	r2, [r3, #92]	@ 0x5c
 8000ec2:	4b87      	ldr	r3, [pc, #540]	@ (80010e0 <HAL_RCC_OscConfig+0x618>)
 8000ec4:	2101      	movs	r1, #1
 8000ec6:	430a      	orrs	r2, r1
 8000ec8:	65da      	str	r2, [r3, #92]	@ 0x5c
 8000eca:	e00b      	b.n	8000ee4 <HAL_RCC_OscConfig+0x41c>
 8000ecc:	4b84      	ldr	r3, [pc, #528]	@ (80010e0 <HAL_RCC_OscConfig+0x618>)
 8000ece:	6dda      	ldr	r2, [r3, #92]	@ 0x5c
 8000ed0:	4b83      	ldr	r3, [pc, #524]	@ (80010e0 <HAL_RCC_OscConfig+0x618>)
 8000ed2:	2101      	movs	r1, #1
 8000ed4:	438a      	bics	r2, r1
 8000ed6:	65da      	str	r2, [r3, #92]	@ 0x5c
 8000ed8:	4b81      	ldr	r3, [pc, #516]	@ (80010e0 <HAL_RCC_OscConfig+0x618>)
 8000eda:	6dda      	ldr	r2, [r3, #92]	@ 0x5c
 8000edc:	4b80      	ldr	r3, [pc, #512]	@ (80010e0 <HAL_RCC_OscConfig+0x618>)
 8000ede:	2104      	movs	r1, #4
 8000ee0:	438a      	bics	r2, r1
 8000ee2:	65da      	str	r2, [r3, #92]	@ 0x5c

      /* Check the LSE State */
      if (RCC_OscInitStruct->LSEState != RCC_LSE_OFF)
 8000ee4:	687b      	ldr	r3, [r7, #4]
 8000ee6:	689b      	ldr	r3, [r3, #8]
 8000ee8:	2b00      	cmp	r3, #0
 8000eea:	d014      	beq.n	8000f16 <HAL_RCC_OscConfig+0x44e>
      {
        /* Get Start Tick*/
        tickstart = HAL_GetTick();
 8000eec:	f7ff fb2e 	bl	800054c <HAL_GetTick>
 8000ef0:	0003      	movs	r3, r0
 8000ef2:	613b      	str	r3, [r7, #16]

        /* Wait till LSE is ready */
        while (READ_BIT(RCC->BDCR, RCC_BDCR_LSERDY) == 0U)
 8000ef4:	e009      	b.n	8000f0a <HAL_RCC_OscConfig+0x442>
        {
          if ((HAL_GetTick() - tickstart) > RCC_LSE_TIMEOUT_VALUE)
 8000ef6:	f7ff fb29 	bl	800054c <HAL_GetTick>
 8000efa:	0002      	movs	r2, r0
 8000efc:	693b      	ldr	r3, [r7, #16]
 8000efe:	1ad3      	subs	r3, r2, r3
 8000f00:	4a79      	ldr	r2, [pc, #484]	@ (80010e8 <HAL_RCC_OscConfig+0x620>)
 8000f02:	4293      	cmp	r3, r2
 8000f04:	d901      	bls.n	8000f0a <HAL_RCC_OscConfig+0x442>
          {
            return HAL_TIMEOUT;
 8000f06:	2303      	movs	r3, #3
 8000f08:	e0e6      	b.n	80010d8 <HAL_RCC_OscConfig+0x610>
        while (READ_BIT(RCC->BDCR, RCC_BDCR_LSERDY) == 0U)
 8000f0a:	4b75      	ldr	r3, [pc, #468]	@ (80010e0 <HAL_RCC_OscConfig+0x618>)
 8000f0c:	6ddb      	ldr	r3, [r3, #92]	@ 0x5c
 8000f0e:	2202      	movs	r2, #2
 8000f10:	4013      	ands	r3, r2
 8000f12:	d0f0      	beq.n	8000ef6 <HAL_RCC_OscConfig+0x42e>
 8000f14:	e013      	b.n	8000f3e <HAL_RCC_OscConfig+0x476>
        }
      }
      else
      {
        /* Get Start Tick*/
        tickstart = HAL_GetTick();
 8000f16:	f7ff fb19 	bl	800054c <HAL_GetTick>
 8000f1a:	0003      	movs	r3, r0
 8000f1c:	613b      	str	r3, [r7, #16]

        /* Wait till LSE is disabled */
        while (READ_BIT(RCC->BDCR, RCC_BDCR_LSERDY) != 0U)
 8000f1e:	e009      	b.n	8000f34 <HAL_RCC_OscConfig+0x46c>
        {
          if ((HAL_GetTick() - tickstart) > RCC_LSE_TIMEOUT_VALUE)
 8000f20:	f7ff fb14 	bl	800054c <HAL_GetTick>
 8000f24:	0002      	movs	r2, r0
 8000f26:	693b      	ldr	r3, [r7, #16]
 8000f28:	1ad3      	subs	r3, r2, r3
 8000f2a:	4a6f      	ldr	r2, [pc, #444]	@ (80010e8 <HAL_RCC_OscConfig+0x620>)
 8000f2c:	4293      	cmp	r3, r2
 8000f2e:	d901      	bls.n	8000f34 <HAL_RCC_OscConfig+0x46c>
          {
            return HAL_TIMEOUT;
 8000f30:	2303      	movs	r3, #3
 8000f32:	e0d1      	b.n	80010d8 <HAL_RCC_OscConfig+0x610>
        while (READ_BIT(RCC->BDCR, RCC_BDCR_LSERDY) != 0U)
 8000f34:	4b6a      	ldr	r3, [pc, #424]	@ (80010e0 <HAL_RCC_OscConfig+0x618>)
 8000f36:	6ddb      	ldr	r3, [r3, #92]	@ 0x5c
 8000f38:	2202      	movs	r2, #2
 8000f3a:	4013      	ands	r3, r2
 8000f3c:	d1f0      	bne.n	8000f20 <HAL_RCC_OscConfig+0x458>
          }
        }
      }

      /* Restore clock configuration if changed */
      if (pwrclkchanged == SET)
 8000f3e:	231f      	movs	r3, #31
 8000f40:	18fb      	adds	r3, r7, r3
 8000f42:	781b      	ldrb	r3, [r3, #0]
 8000f44:	2b01      	cmp	r3, #1
 8000f46:	d105      	bne.n	8000f54 <HAL_RCC_OscConfig+0x48c>
      {
        __HAL_RCC_PWR_CLK_DISABLE();
 8000f48:	4b65      	ldr	r3, [pc, #404]	@ (80010e0 <HAL_RCC_OscConfig+0x618>)
 8000f4a:	6bda      	ldr	r2, [r3, #60]	@ 0x3c
 8000f4c:	4b64      	ldr	r3, [pc, #400]	@ (80010e0 <HAL_RCC_OscConfig+0x618>)
 8000f4e:	4967      	ldr	r1, [pc, #412]	@ (80010ec <HAL_RCC_OscConfig+0x624>)
 8000f50:	400a      	ands	r2, r1
 8000f52:	63da      	str	r2, [r3, #60]	@ 0x3c
#endif /* RCC_HSI48_SUPPORT */
  /*-------------------------------- PLL Configuration -----------------------*/
  /* Check the parameters */
  assert_param(IS_RCC_PLL(RCC_OscInitStruct->PLL.PLLState));

  if (RCC_OscInitStruct->PLL.PLLState != RCC_PLL_NONE)
 8000f54:	687b      	ldr	r3, [r7, #4]
 8000f56:	69db      	ldr	r3, [r3, #28]
 8000f58:	2b00      	cmp	r3, #0
 8000f5a:	d100      	bne.n	8000f5e <HAL_RCC_OscConfig+0x496>
 8000f5c:	e0bb      	b.n	80010d6 <HAL_RCC_OscConfig+0x60e>
  {
    /* Check if the PLL is used as system clock or not */
    if (__HAL_RCC_GET_SYSCLK_SOURCE() != RCC_SYSCLKSOURCE_STATUS_PLLCLK)
 8000f5e:	4b60      	ldr	r3, [pc, #384]	@ (80010e0 <HAL_RCC_OscConfig+0x618>)
 8000f60:	689b      	ldr	r3, [r3, #8]
 8000f62:	2238      	movs	r2, #56	@ 0x38
 8000f64:	4013      	ands	r3, r2
 8000f66:	2b10      	cmp	r3, #16
 8000f68:	d100      	bne.n	8000f6c <HAL_RCC_OscConfig+0x4a4>
 8000f6a:	e07b      	b.n	8001064 <HAL_RCC_OscConfig+0x59c>
    {
      if (RCC_OscInitStruct->PLL.PLLState == RCC_PLL_ON)
 8000f6c:	687b      	ldr	r3, [r7, #4]
 8000f6e:	69db      	ldr	r3, [r3, #28]
 8000f70:	2b02      	cmp	r3, #2
 8000f72:	d156      	bne.n	8001022 <HAL_RCC_OscConfig+0x55a>
        assert_param(IS_RCC_PLLQ_VALUE(RCC_OscInitStruct->PLL.PLLQ));
#endif /* RCC_PLLQ_SUPPORT */
        assert_param(IS_RCC_PLLR_VALUE(RCC_OscInitStruct->PLL.PLLR));

        /* Disable the main PLL. */
        __HAL_RCC_PLL_DISABLE();
 8000f74:	4b5a      	ldr	r3, [pc, #360]	@ (80010e0 <HAL_RCC_OscConfig+0x618>)
 8000f76:	681a      	ldr	r2, [r3, #0]
 8000f78:	4b59      	ldr	r3, [pc, #356]	@ (80010e0 <HAL_RCC_OscConfig+0x618>)
 8000f7a:	495d      	ldr	r1, [pc, #372]	@ (80010f0 <HAL_RCC_OscConfig+0x628>)
 8000f7c:	400a      	ands	r2, r1
 8000f7e:	601a      	str	r2, [r3, #0]

        /* Get Start Tick*/
        tickstart = HAL_GetTick();
 8000f80:	f7ff fae4 	bl	800054c <HAL_GetTick>
 8000f84:	0003      	movs	r3, r0
 8000f86:	613b      	str	r3, [r7, #16]

        /* Wait till PLL is ready */
        while (READ_BIT(RCC->CR, RCC_CR_PLLRDY) != 0U)
 8000f88:	e008      	b.n	8000f9c <HAL_RCC_OscConfig+0x4d4>
        {
          if ((HAL_GetTick() - tickstart) > PLL_TIMEOUT_VALUE)
 8000f8a:	f7ff fadf 	bl	800054c <HAL_GetTick>
 8000f8e:	0002      	movs	r2, r0
 8000f90:	693b      	ldr	r3, [r7, #16]
 8000f92:	1ad3      	subs	r3, r2, r3
 8000f94:	2b02      	cmp	r3, #2
 8000f96:	d901      	bls.n	8000f9c <HAL_RCC_OscConfig+0x4d4>
          {
            return HAL_TIMEOUT;
 8000f98:	2303      	movs	r3, #3
 8000f9a:	e09d      	b.n	80010d8 <HAL_RCC_OscConfig+0x610>
        while (READ_BIT(RCC->CR, RCC_CR_PLLRDY) != 0U)
 8000f9c:	4b50      	ldr	r3, [pc, #320]	@ (80010e0 <HAL_RCC_OscConfig+0x618>)
 8000f9e:	681a      	ldr	r2, [r3, #0]
 8000fa0:	2380      	movs	r3, #128	@ 0x80
 8000fa2:	049b      	lsls	r3, r3, #18
 8000fa4:	4013      	ands	r3, r2
 8000fa6:	d1f0      	bne.n	8000f8a <HAL_RCC_OscConfig+0x4c2>
          }
        }

        /* Configure the main PLL clock source, multiplication and division factors. */
#if defined(RCC_PLLQ_SUPPORT)
        __HAL_RCC_PLL_CONFIG(RCC_OscInitStruct->PLL.PLLSource,
 8000fa8:	4b4d      	ldr	r3, [pc, #308]	@ (80010e0 <HAL_RCC_OscConfig+0x618>)
 8000faa:	68db      	ldr	r3, [r3, #12]
 8000fac:	4a51      	ldr	r2, [pc, #324]	@ (80010f4 <HAL_RCC_OscConfig+0x62c>)
 8000fae:	4013      	ands	r3, r2
 8000fb0:	0019      	movs	r1, r3
 8000fb2:	687b      	ldr	r3, [r7, #4]
 8000fb4:	6a1a      	ldr	r2, [r3, #32]
 8000fb6:	687b      	ldr	r3, [r7, #4]
 8000fb8:	6a5b      	ldr	r3, [r3, #36]	@ 0x24
 8000fba:	431a      	orrs	r2, r3
 8000fbc:	687b      	ldr	r3, [r7, #4]
 8000fbe:	6a9b      	ldr	r3, [r3, #40]	@ 0x28
 8000fc0:	021b      	lsls	r3, r3, #8
 8000fc2:	431a      	orrs	r2, r3
 8000fc4:	687b      	ldr	r3, [r7, #4]
 8000fc6:	6adb      	ldr	r3, [r3, #44]	@ 0x2c
 8000fc8:	431a      	orrs	r2, r3
 8000fca:	687b      	ldr	r3, [r7, #4]
 8000fcc:	6b1b      	ldr	r3, [r3, #48]	@ 0x30
 8000fce:	431a      	orrs	r2, r3
 8000fd0:	687b      	ldr	r3, [r7, #4]
 8000fd2:	6b5b      	ldr	r3, [r3, #52]	@ 0x34
 8000fd4:	431a      	orrs	r2, r3
 8000fd6:	4b42      	ldr	r3, [pc, #264]	@ (80010e0 <HAL_RCC_OscConfig+0x618>)
 8000fd8:	430a      	orrs	r2, r1
 8000fda:	60da      	str	r2, [r3, #12]
                             RCC_OscInitStruct->PLL.PLLP,
                             RCC_OscInitStruct->PLL.PLLR);
#endif /* RCC_PLLQ_SUPPORT */

        /* Enable the main PLL. */
        __HAL_RCC_PLL_ENABLE();
 8000fdc:	4b40      	ldr	r3, [pc, #256]	@ (80010e0 <HAL_RCC_OscConfig+0x618>)
 8000fde:	681a      	ldr	r2, [r3, #0]
 8000fe0:	4b3f      	ldr	r3, [pc, #252]	@ (80010e0 <HAL_RCC_OscConfig+0x618>)
 8000fe2:	2180      	movs	r1, #128	@ 0x80
 8000fe4:	0449      	lsls	r1, r1, #17
 8000fe6:	430a      	orrs	r2, r1
 8000fe8:	601a      	str	r2, [r3, #0]

        /* Enable PLLR Clock output. */
        __HAL_RCC_PLLCLKOUT_ENABLE(RCC_PLLRCLK);
 8000fea:	4b3d      	ldr	r3, [pc, #244]	@ (80010e0 <HAL_RCC_OscConfig+0x618>)
 8000fec:	68da      	ldr	r2, [r3, #12]
 8000fee:	4b3c      	ldr	r3, [pc, #240]	@ (80010e0 <HAL_RCC_OscConfig+0x618>)
 8000ff0:	2180      	movs	r1, #128	@ 0x80
 8000ff2:	0549      	lsls	r1, r1, #21
 8000ff4:	430a      	orrs	r2, r1
 8000ff6:	60da      	str	r2, [r3, #12]

        /* Get Start Tick*/
        tickstart = HAL_GetTick();
 8000ff8:	f7ff faa8 	bl	800054c <HAL_GetTick>
 8000ffc:	0003      	movs	r3, r0
 8000ffe:	613b      	str	r3, [r7, #16]

        /* Wait till PLL is ready */
        while (READ_BIT(RCC->CR, RCC_CR_PLLRDY) == 0U)
 8001000:	e008      	b.n	8001014 <HAL_RCC_OscConfig+0x54c>
        {
          if ((HAL_GetTick() - tickstart) > PLL_TIMEOUT_VALUE)
 8001002:	f7ff faa3 	bl	800054c <HAL_GetTick>
 8001006:	0002      	movs	r2, r0
 8001008:	693b      	ldr	r3, [r7, #16]
 800100a:	1ad3      	subs	r3, r2, r3
 800100c:	2b02      	cmp	r3, #2
 800100e:	d901      	bls.n	8001014 <HAL_RCC_OscConfig+0x54c>
          {
            return HAL_TIMEOUT;
 8001010:	2303      	movs	r3, #3
 8001012:	e061      	b.n	80010d8 <HAL_RCC_OscConfig+0x610>
        while (READ_BIT(RCC->CR, RCC_CR_PLLRDY) == 0U)
 8001014:	4b32      	ldr	r3, [pc, #200]	@ (80010e0 <HAL_RCC_OscConfig+0x618>)
 8001016:	681a      	ldr	r2, [r3, #0]
 8001018:	2380      	movs	r3, #128	@ 0x80
 800101a:	049b      	lsls	r3, r3, #18
 800101c:	4013      	ands	r3, r2
 800101e:	d0f0      	beq.n	8001002 <HAL_RCC_OscConfig+0x53a>
 8001020:	e059      	b.n	80010d6 <HAL_RCC_OscConfig+0x60e>
        }
      }
      else
      {
        /* Disable the main PLL. */
        __HAL_RCC_PLL_DISABLE();
 8001022:	4b2f      	ldr	r3, [pc, #188]	@ (80010e0 <HAL_RCC_OscConfig+0x618>)
 8001024:	681a      	ldr	r2, [r3, #0]
 8001026:	4b2e      	ldr	r3, [pc, #184]	@ (80010e0 <HAL_RCC_OscConfig+0x618>)
 8001028:	4931      	ldr	r1, [pc, #196]	@ (80010f0 <HAL_RCC_OscConfig+0x628>)
 800102a:	400a      	ands	r2, r1
 800102c:	601a      	str	r2, [r3, #0]

        /* Get Start Tick*/
        tickstart = HAL_GetTick();
 800102e:	f7ff fa8d 	bl	800054c <HAL_GetTick>
 8001032:	0003      	movs	r3, r0
 8001034:	613b      	str	r3, [r7, #16]

        /* Wait till PLL is disabled */
        while (READ_BIT(RCC->CR, RCC_CR_PLLRDY) != 0U)
 8001036:	e008      	b.n	800104a <HAL_RCC_OscConfig+0x582>
        {
          if ((HAL_GetTick() - tickstart) > PLL_TIMEOUT_VALUE)
 8001038:	f7ff fa88 	bl	800054c <HAL_GetTick>
 800103c:	0002      	movs	r2, r0
 800103e:	693b      	ldr	r3, [r7, #16]
 8001040:	1ad3      	subs	r3, r2, r3
 8001042:	2b02      	cmp	r3, #2
 8001044:	d901      	bls.n	800104a <HAL_RCC_OscConfig+0x582>
          {
            return HAL_TIMEOUT;
 8001046:	2303      	movs	r3, #3
 8001048:	e046      	b.n	80010d8 <HAL_RCC_OscConfig+0x610>
        while (READ_BIT(RCC->CR, RCC_CR_PLLRDY) != 0U)
 800104a:	4b25      	ldr	r3, [pc, #148]	@ (80010e0 <HAL_RCC_OscConfig+0x618>)
 800104c:	681a      	ldr	r2, [r3, #0]
 800104e:	2380      	movs	r3, #128	@ 0x80
 8001050:	049b      	lsls	r3, r3, #18
 8001052:	4013      	ands	r3, r2
 8001054:	d1f0      	bne.n	8001038 <HAL_RCC_OscConfig+0x570>
          }
        }
        /* Unselect main PLL clock source and disable main PLL outputs to save power */
#if defined(RCC_PLLQ_SUPPORT)
        RCC->PLLCFGR &= ~(RCC_PLLCFGR_PLLSRC | RCC_PLLCFGR_PLLPEN | RCC_PLLCFGR_PLLQEN | RCC_PLLCFGR_PLLREN);
 8001056:	4b22      	ldr	r3, [pc, #136]	@ (80010e0 <HAL_RCC_OscConfig+0x618>)
 8001058:	68da      	ldr	r2, [r3, #12]
 800105a:	4b21      	ldr	r3, [pc, #132]	@ (80010e0 <HAL_RCC_OscConfig+0x618>)
 800105c:	4926      	ldr	r1, [pc, #152]	@ (80010f8 <HAL_RCC_OscConfig+0x630>)
 800105e:	400a      	ands	r2, r1
 8001060:	60da      	str	r2, [r3, #12]
 8001062:	e038      	b.n	80010d6 <HAL_RCC_OscConfig+0x60e>
      }
    }
    else
    {
      /* Check if there is a request to disable the PLL used as System clock source */
      if ((RCC_OscInitStruct->PLL.PLLState) == RCC_PLL_OFF)
 8001064:	687b      	ldr	r3, [r7, #4]
 8001066:	69db      	ldr	r3, [r3, #28]
 8001068:	2b01      	cmp	r3, #1
 800106a:	d101      	bne.n	8001070 <HAL_RCC_OscConfig+0x5a8>
      {
        return HAL_ERROR;
 800106c:	2301      	movs	r3, #1
 800106e:	e033      	b.n	80010d8 <HAL_RCC_OscConfig+0x610>
      }
      else
      {
        /* Do not return HAL_ERROR if request repeats the current configuration */
        temp_pllckcfg = RCC->PLLCFGR;
 8001070:	4b1b      	ldr	r3, [pc, #108]	@ (80010e0 <HAL_RCC_OscConfig+0x618>)
 8001072:	68db      	ldr	r3, [r3, #12]
 8001074:	617b      	str	r3, [r7, #20]
        if ((READ_BIT(temp_pllckcfg, RCC_PLLCFGR_PLLSRC) != RCC_OscInitStruct->PLL.PLLSource) ||
 8001076:	697b      	ldr	r3, [r7, #20]
 8001078:	2203      	movs	r2, #3
 800107a:	401a      	ands	r2, r3
 800107c:	687b      	ldr	r3, [r7, #4]
 800107e:	6a1b      	ldr	r3, [r3, #32]
 8001080:	429a      	cmp	r2, r3
 8001082:	d126      	bne.n	80010d2 <HAL_RCC_OscConfig+0x60a>
            (READ_BIT(temp_pllckcfg, RCC_PLLCFGR_PLLM) != RCC_OscInitStruct->PLL.PLLM) ||
 8001084:	697b      	ldr	r3, [r7, #20]
 8001086:	2270      	movs	r2, #112	@ 0x70
 8001088:	401a      	ands	r2, r3
 800108a:	687b      	ldr	r3, [r7, #4]
 800108c:	6a5b      	ldr	r3, [r3, #36]	@ 0x24
        if ((READ_BIT(temp_pllckcfg, RCC_PLLCFGR_PLLSRC) != RCC_OscInitStruct->PLL.PLLSource) ||
 800108e:	429a      	cmp	r2, r3
 8001090:	d11f      	bne.n	80010d2 <HAL_RCC_OscConfig+0x60a>
            (READ_BIT(temp_pllckcfg, RCC_PLLCFGR_PLLN) != (RCC_OscInitStruct->PLL.PLLN << RCC_PLLCFGR_PLLN_Pos)) ||
 8001092:	697a      	ldr	r2, [r7, #20]
 8001094:	23fe      	movs	r3, #254	@ 0xfe
 8001096:	01db      	lsls	r3, r3, #7
 8001098:	401a      	ands	r2, r3
 800109a:	687b      	ldr	r3, [r7, #4]
 800109c:	6a9b      	ldr	r3, [r3, #40]	@ 0x28
 800109e:	021b      	lsls	r3, r3, #8
            (READ_BIT(temp_pllckcfg, RCC_PLLCFGR_PLLM) != RCC_OscInitStruct->PLL.PLLM) ||
 80010a0:	429a      	cmp	r2, r3
 80010a2:	d116      	bne.n	80010d2 <HAL_RCC_OscConfig+0x60a>
            (READ_BIT(temp_pllckcfg, RCC_PLLCFGR_PLLP) != RCC_OscInitStruct->PLL.PLLP) ||
 80010a4:	697a      	ldr	r2, [r7, #20]
 80010a6:	23f8      	movs	r3, #248	@ 0xf8
 80010a8:	039b      	lsls	r3, r3, #14
 80010aa:	401a      	ands	r2, r3
 80010ac:	687b      	ldr	r3, [r7, #4]
 80010ae:	6adb      	ldr	r3, [r3, #44]	@ 0x2c
            (READ_BIT(temp_pllckcfg, RCC_PLLCFGR_PLLN) != (RCC_OscInitStruct->PLL.PLLN << RCC_PLLCFGR_PLLN_Pos)) ||
 80010b0:	429a      	cmp	r2, r3
 80010b2:	d10e      	bne.n	80010d2 <HAL_RCC_OscConfig+0x60a>
#if defined (RCC_PLLQ_SUPPORT)
            (READ_BIT(temp_pllckcfg, RCC_PLLCFGR_PLLQ) != RCC_OscInitStruct->PLL.PLLQ) ||
 80010b4:	697a      	ldr	r2, [r7, #20]
 80010b6:	23e0      	movs	r3, #224	@ 0xe0
 80010b8:	051b      	lsls	r3, r3, #20
 80010ba:	401a      	ands	r2, r3
 80010bc:	687b      	ldr	r3, [r7, #4]
 80010be:	6b1b      	ldr	r3, [r3, #48]	@ 0x30
            (READ_BIT(temp_pllckcfg, RCC_PLLCFGR_PLLP) != RCC_OscInitStruct->PLL.PLLP) ||
 80010c0:	429a      	cmp	r2, r3
 80010c2:	d106      	bne.n	80010d2 <HAL_RCC_OscConfig+0x60a>
#endif /* RCC_PLLQ_SUPPORT */
            (READ_BIT(temp_pllckcfg, RCC_PLLCFGR_PLLR) != RCC_OscInitStruct->PLL.PLLR))
 80010c4:	697b      	ldr	r3, [r7, #20]
 80010c6:	0f5b      	lsrs	r3, r3, #29
 80010c8:	075a      	lsls	r2, r3, #29
 80010ca:	687b      	ldr	r3, [r7, #4]
 80010cc:	6b5b      	ldr	r3, [r3, #52]	@ 0x34
            (READ_BIT(temp_pllckcfg, RCC_PLLCFGR_PLLQ) != RCC_OscInitStruct->PLL.PLLQ) ||
 80010ce:	429a      	cmp	r2, r3
 80010d0:	d001      	beq.n	80010d6 <HAL_RCC_OscConfig+0x60e>
        {
          return HAL_ERROR;
 80010d2:	2301      	movs	r3, #1
 80010d4:	e000      	b.n	80010d8 <HAL_RCC_OscConfig+0x610>
        }
      }
    }
  }
  return HAL_OK;
 80010d6:	2300      	movs	r3, #0
}
 80010d8:	0018      	movs	r0, r3
 80010da:	46bd      	mov	sp, r7
 80010dc:	b008      	add	sp, #32
 80010de:	bd80      	pop	{r7, pc}
 80010e0:	40021000 	.word	0x40021000
 80010e4:	40007000 	.word	0x40007000
 80010e8:	00001388 	.word	0x00001388
 80010ec:	efffffff 	.word	0xefffffff
 80010f0:	feffffff 	.word	0xfeffffff
 80010f4:	11c1808c 	.word	0x11c1808c
 80010f8:	eefefffc 	.word	0xeefefffc

080010fc <HAL_RCC_ClockConfig>:
  *         HPRE[3:0] bits to ensure that HCLK not exceed the maximum allowed frequency
  *         (for more details refer to section above "Initialization/de-initialization functions")
  * @retval None
  */
HAL_StatusTypeDef HAL_RCC_ClockConfig(RCC_ClkInitTypeDef  *RCC_ClkInitStruct, uint32_t FLatency)
{
 80010fc:	b580      	push	{r7, lr}
 80010fe:	b084      	sub	sp, #16
 8001100:	af00      	add	r7, sp, #0
 8001102:	6078      	str	r0, [r7, #4]
 8001104:	6039      	str	r1, [r7, #0]
  uint32_t tickstart;

  /* Check Null pointer */
  if (RCC_ClkInitStruct == NULL)
 8001106:	687b      	ldr	r3, [r7, #4]
 8001108:	2b00      	cmp	r3, #0
 800110a:	d101      	bne.n	8001110 <HAL_RCC_ClockConfig+0x14>
  {
    return HAL_ERROR;
 800110c:	2301      	movs	r3, #1
 800110e:	e0e9      	b.n	80012e4 <HAL_RCC_ClockConfig+0x1e8>
  /* To correctly read data from FLASH memory, the number of wait states (LATENCY)
    must be correctly programmed according to the frequency of the FLASH clock
    (HCLK) and the supply voltage of the device. */

  /* Increasing the number of wait states because of higher CPU frequency */
  if (FLatency > __HAL_FLASH_GET_LATENCY())
 8001110:	4b76      	ldr	r3, [pc, #472]	@ (80012ec <HAL_RCC_ClockConfig+0x1f0>)
 8001112:	681b      	ldr	r3, [r3, #0]
 8001114:	2207      	movs	r2, #7
 8001116:	4013      	ands	r3, r2
 8001118:	683a      	ldr	r2, [r7, #0]
 800111a:	429a      	cmp	r2, r3
 800111c:	d91e      	bls.n	800115c <HAL_RCC_ClockConfig+0x60>
  {
    /* Program the new number of wait states to the LATENCY bits in the FLASH_ACR register */
    __HAL_FLASH_SET_LATENCY(FLatency);
 800111e:	4b73      	ldr	r3, [pc, #460]	@ (80012ec <HAL_RCC_ClockConfig+0x1f0>)
 8001120:	681b      	ldr	r3, [r3, #0]
 8001122:	2207      	movs	r2, #7
 8001124:	4393      	bics	r3, r2
 8001126:	0019      	movs	r1, r3
 8001128:	4b70      	ldr	r3, [pc, #448]	@ (80012ec <HAL_RCC_ClockConfig+0x1f0>)
 800112a:	683a      	ldr	r2, [r7, #0]
 800112c:	430a      	orrs	r2, r1
 800112e:	601a      	str	r2, [r3, #0]

    /* Check that the new number of wait states is taken into account to access the Flash
    memory by polling the FLASH_ACR register */
    tickstart = HAL_GetTick();
 8001130:	f7ff fa0c 	bl	800054c <HAL_GetTick>
 8001134:	0003      	movs	r3, r0
 8001136:	60fb      	str	r3, [r7, #12]

    while ((FLASH->ACR & FLASH_ACR_LATENCY) != FLatency)
 8001138:	e009      	b.n	800114e <HAL_RCC_ClockConfig+0x52>
    {
      if ((HAL_GetTick() - tickstart) > CLOCKSWITCH_TIMEOUT_VALUE)
 800113a:	f7ff fa07 	bl	800054c <HAL_GetTick>
 800113e:	0002      	movs	r2, r0
 8001140:	68fb      	ldr	r3, [r7, #12]
 8001142:	1ad3      	subs	r3, r2, r3
 8001144:	4a6a      	ldr	r2, [pc, #424]	@ (80012f0 <HAL_RCC_ClockConfig+0x1f4>)
 8001146:	4293      	cmp	r3, r2
 8001148:	d901      	bls.n	800114e <HAL_RCC_ClockConfig+0x52>
      {
        return HAL_TIMEOUT;
 800114a:	2303      	movs	r3, #3
 800114c:	e0ca      	b.n	80012e4 <HAL_RCC_ClockConfig+0x1e8>
    while ((FLASH->ACR & FLASH_ACR_LATENCY) != FLatency)
 800114e:	4b67      	ldr	r3, [pc, #412]	@ (80012ec <HAL_RCC_ClockConfig+0x1f0>)
 8001150:	681b      	ldr	r3, [r3, #0]
 8001152:	2207      	movs	r2, #7
 8001154:	4013      	ands	r3, r2
 8001156:	683a      	ldr	r2, [r7, #0]
 8001158:	429a      	cmp	r2, r3
 800115a:	d1ee      	bne.n	800113a <HAL_RCC_ClockConfig+0x3e>
      }
    }
  }

  /*-------------------------- HCLK Configuration --------------------------*/
  if (((RCC_ClkInitStruct->ClockType) & RCC_CLOCKTYPE_HCLK) == RCC_CLOCKTYPE_HCLK)
 800115c:	687b      	ldr	r3, [r7, #4]
 800115e:	681b      	ldr	r3, [r3, #0]
 8001160:	2202      	movs	r2, #2
 8001162:	4013      	ands	r3, r2
 8001164:	d015      	beq.n	8001192 <HAL_RCC_ClockConfig+0x96>
  {
    /* Set the highest APB divider in order to ensure that we do not go through
       a non-spec phase whatever we decrease or increase HCLK. */
    if (((RCC_ClkInitStruct->ClockType) & RCC_CLOCKTYPE_PCLK1) == RCC_CLOCKTYPE_PCLK1)
 8001166:	687b      	ldr	r3, [r7, #4]
 8001168:	681b      	ldr	r3, [r3, #0]
 800116a:	2204      	movs	r2, #4
 800116c:	4013      	ands	r3, r2
 800116e:	d006      	beq.n	800117e <HAL_RCC_ClockConfig+0x82>
    {
      MODIFY_REG(RCC->CFGR, RCC_CFGR_PPRE, RCC_HCLK_DIV16);
 8001170:	4b60      	ldr	r3, [pc, #384]	@ (80012f4 <HAL_RCC_ClockConfig+0x1f8>)
 8001172:	689a      	ldr	r2, [r3, #8]
 8001174:	4b5f      	ldr	r3, [pc, #380]	@ (80012f4 <HAL_RCC_ClockConfig+0x1f8>)
 8001176:	21e0      	movs	r1, #224	@ 0xe0
 8001178:	01c9      	lsls	r1, r1, #7
 800117a:	430a      	orrs	r2, r1
 800117c:	609a      	str	r2, [r3, #8]
    }

    /* Set the new HCLK clock divider */
    assert_param(IS_RCC_HCLK(RCC_ClkInitStruct->AHBCLKDivider));
    MODIFY_REG(RCC->CFGR, RCC_CFGR_HPRE, RCC_ClkInitStruct->AHBCLKDivider);
 800117e:	4b5d      	ldr	r3, [pc, #372]	@ (80012f4 <HAL_RCC_ClockConfig+0x1f8>)
 8001180:	689b      	ldr	r3, [r3, #8]
 8001182:	4a5d      	ldr	r2, [pc, #372]	@ (80012f8 <HAL_RCC_ClockConfig+0x1fc>)
 8001184:	4013      	ands	r3, r2
 8001186:	0019      	movs	r1, r3
 8001188:	687b      	ldr	r3, [r7, #4]
 800118a:	689a      	ldr	r2, [r3, #8]
 800118c:	4b59      	ldr	r3, [pc, #356]	@ (80012f4 <HAL_RCC_ClockConfig+0x1f8>)
 800118e:	430a      	orrs	r2, r1
 8001190:	609a      	str	r2, [r3, #8]
  }

  /*------------------------- SYSCLK Configuration ---------------------------*/
  if (((RCC_ClkInitStruct->ClockType) & RCC_CLOCKTYPE_SYSCLK) == RCC_CLOCKTYPE_SYSCLK)
 8001192:	687b      	ldr	r3, [r7, #4]
 8001194:	681b      	ldr	r3, [r3, #0]
 8001196:	2201      	movs	r2, #1
 8001198:	4013      	ands	r3, r2
 800119a:	d057      	beq.n	800124c <HAL_RCC_ClockConfig+0x150>
  {
    assert_param(IS_RCC_SYSCLKSOURCE(RCC_ClkInitStruct->SYSCLKSource));

    /* HSE is selected as System Clock Source */
    if (RCC_ClkInitStruct->SYSCLKSource == RCC_SYSCLKSOURCE_HSE)
 800119c:	687b      	ldr	r3, [r7, #4]
 800119e:	685b      	ldr	r3, [r3, #4]
 80011a0:	2b01      	cmp	r3, #1
 80011a2:	d107      	bne.n	80011b4 <HAL_RCC_ClockConfig+0xb8>
    {
      /* Check the HSE ready flag */
      if (READ_BIT(RCC->CR, RCC_CR_HSERDY) == 0U)
 80011a4:	4b53      	ldr	r3, [pc, #332]	@ (80012f4 <HAL_RCC_ClockConfig+0x1f8>)
 80011a6:	681a      	ldr	r2, [r3, #0]
 80011a8:	2380      	movs	r3, #128	@ 0x80
 80011aa:	029b      	lsls	r3, r3, #10
 80011ac:	4013      	ands	r3, r2
 80011ae:	d12b      	bne.n	8001208 <HAL_RCC_ClockConfig+0x10c>
      {
        return HAL_ERROR;
 80011b0:	2301      	movs	r3, #1
 80011b2:	e097      	b.n	80012e4 <HAL_RCC_ClockConfig+0x1e8>
      }
    }
    /* PLL is selected as System Clock Source */
    else if (RCC_ClkInitStruct->SYSCLKSource == RCC_SYSCLKSOURCE_PLLCLK)
 80011b4:	687b      	ldr	r3, [r7, #4]
 80011b6:	685b      	ldr	r3, [r3, #4]
 80011b8:	2b02      	cmp	r3, #2
 80011ba:	d107      	bne.n	80011cc <HAL_RCC_ClockConfig+0xd0>
    {
      /* Check the PLL ready flag */
      if (READ_BIT(RCC->CR, RCC_CR_PLLRDY) == 0U)
 80011bc:	4b4d      	ldr	r3, [pc, #308]	@ (80012f4 <HAL_RCC_ClockConfig+0x1f8>)
 80011be:	681a      	ldr	r2, [r3, #0]
 80011c0:	2380      	movs	r3, #128	@ 0x80
 80011c2:	049b      	lsls	r3, r3, #18
 80011c4:	4013      	ands	r3, r2
 80011c6:	d11f      	bne.n	8001208 <HAL_RCC_ClockConfig+0x10c>
      {
        return HAL_ERROR;
 80011c8:	2301      	movs	r3, #1
 80011ca:	e08b      	b.n	80012e4 <HAL_RCC_ClockConfig+0x1e8>
      }
    }
    /* HSI is selected as System Clock Source */
    else if (RCC_ClkInitStruct->SYSCLKSource == RCC_SYSCLKSOURCE_HSI)
 80011cc:	687b      	ldr	r3, [r7, #4]
 80011ce:	685b      	ldr	r3, [r3, #4]
 80011d0:	2b00      	cmp	r3, #0
 80011d2:	d107      	bne.n	80011e4 <HAL_RCC_ClockConfig+0xe8>
    {
      /* Check the HSI ready flag */
      if (READ_BIT(RCC->CR, RCC_CR_HSIRDY) == 0U)
 80011d4:	4b47      	ldr	r3, [pc, #284]	@ (80012f4 <HAL_RCC_ClockConfig+0x1f8>)
 80011d6:	681a      	ldr	r2, [r3, #0]
 80011d8:	2380      	movs	r3, #128	@ 0x80
 80011da:	00db      	lsls	r3, r3, #3
 80011dc:	4013      	ands	r3, r2
 80011de:	d113      	bne.n	8001208 <HAL_RCC_ClockConfig+0x10c>
      {
        return HAL_ERROR;
 80011e0:	2301      	movs	r3, #1
 80011e2:	e07f      	b.n	80012e4 <HAL_RCC_ClockConfig+0x1e8>
      }
    }
    /* LSI is selected as System Clock Source */
    else if (RCC_ClkInitStruct->SYSCLKSource == RCC_SYSCLKSOURCE_LSI)
 80011e4:	687b      	ldr	r3, [r7, #4]
 80011e6:	685b      	ldr	r3, [r3, #4]
 80011e8:	2b03      	cmp	r3, #3
 80011ea:	d106      	bne.n	80011fa <HAL_RCC_ClockConfig+0xfe>
    {
      /* Check the LSI ready flag */
      if (READ_BIT(RCC->CSR, RCC_CSR_LSIRDY) == 0U)
 80011ec:	4b41      	ldr	r3, [pc, #260]	@ (80012f4 <HAL_RCC_ClockConfig+0x1f8>)
 80011ee:	6e1b      	ldr	r3, [r3, #96]	@ 0x60
 80011f0:	2202      	movs	r2, #2
 80011f2:	4013      	ands	r3, r2
 80011f4:	d108      	bne.n	8001208 <HAL_RCC_ClockConfig+0x10c>
      {
        return HAL_ERROR;
 80011f6:	2301      	movs	r3, #1
 80011f8:	e074      	b.n	80012e4 <HAL_RCC_ClockConfig+0x1e8>
    }
    /* LSE is selected as System Clock Source */
    else
    {
      /* Check the LSE ready flag */
      if (READ_BIT(RCC->BDCR, RCC_BDCR_LSERDY) == 0U)
 80011fa:	4b3e      	ldr	r3, [pc, #248]	@ (80012f4 <HAL_RCC_ClockConfig+0x1f8>)
 80011fc:	6ddb      	ldr	r3, [r3, #92]	@ 0x5c
 80011fe:	2202      	movs	r2, #2
 8001200:	4013      	ands	r3, r2
 8001202:	d101      	bne.n	8001208 <HAL_RCC_ClockConfig+0x10c>
      {
        return HAL_ERROR;
 8001204:	2301      	movs	r3, #1
 8001206:	e06d      	b.n	80012e4 <HAL_RCC_ClockConfig+0x1e8>
      }
    }
    MODIFY_REG(RCC->CFGR, RCC_CFGR_SW, RCC_ClkInitStruct->SYSCLKSource);
 8001208:	4b3a      	ldr	r3, [pc, #232]	@ (80012f4 <HAL_RCC_ClockConfig+0x1f8>)
 800120a:	689b      	ldr	r3, [r3, #8]
 800120c:	2207      	movs	r2, #7
 800120e:	4393      	bics	r3, r2
 8001210:	0019      	movs	r1, r3
 8001212:	687b      	ldr	r3, [r7, #4]
 8001214:	685a      	ldr	r2, [r3, #4]
 8001216:	4b37      	ldr	r3, [pc, #220]	@ (80012f4 <HAL_RCC_ClockConfig+0x1f8>)
 8001218:	430a      	orrs	r2, r1
 800121a:	609a      	str	r2, [r3, #8]

    /* Get Start Tick*/
    tickstart = HAL_GetTick();
 800121c:	f7ff f996 	bl	800054c <HAL_GetTick>
 8001220:	0003      	movs	r3, r0
 8001222:	60fb      	str	r3, [r7, #12]

    while (__HAL_RCC_GET_SYSCLK_SOURCE() != (RCC_ClkInitStruct->SYSCLKSource << RCC_CFGR_SWS_Pos))
 8001224:	e009      	b.n	800123a <HAL_RCC_ClockConfig+0x13e>
    {
      if ((HAL_GetTick() - tickstart) > CLOCKSWITCH_TIMEOUT_VALUE)
 8001226:	f7ff f991 	bl	800054c <HAL_GetTick>
 800122a:	0002      	movs	r2, r0
 800122c:	68fb      	ldr	r3, [r7, #12]
 800122e:	1ad3      	subs	r3, r2, r3
 8001230:	4a2f      	ldr	r2, [pc, #188]	@ (80012f0 <HAL_RCC_ClockConfig+0x1f4>)
 8001232:	4293      	cmp	r3, r2
 8001234:	d901      	bls.n	800123a <HAL_RCC_ClockConfig+0x13e>
      {
        return HAL_TIMEOUT;
 8001236:	2303      	movs	r3, #3
 8001238:	e054      	b.n	80012e4 <HAL_RCC_ClockConfig+0x1e8>
    while (__HAL_RCC_GET_SYSCLK_SOURCE() != (RCC_ClkInitStruct->SYSCLKSource << RCC_CFGR_SWS_Pos))
 800123a:	4b2e      	ldr	r3, [pc, #184]	@ (80012f4 <HAL_RCC_ClockConfig+0x1f8>)
 800123c:	689b      	ldr	r3, [r3, #8]
 800123e:	2238      	movs	r2, #56	@ 0x38
 8001240:	401a      	ands	r2, r3
 8001242:	687b      	ldr	r3, [r7, #4]
 8001244:	685b      	ldr	r3, [r3, #4]
 8001246:	00db      	lsls	r3, r3, #3
 8001248:	429a      	cmp	r2, r3
 800124a:	d1ec      	bne.n	8001226 <HAL_RCC_ClockConfig+0x12a>
      }
    }
  }

  /* Decreasing the number of wait states because of lower CPU frequency */
  if (FLatency < __HAL_FLASH_GET_LATENCY())
 800124c:	4b27      	ldr	r3, [pc, #156]	@ (80012ec <HAL_RCC_ClockConfig+0x1f0>)
 800124e:	681b      	ldr	r3, [r3, #0]
 8001250:	2207      	movs	r2, #7
 8001252:	4013      	ands	r3, r2
 8001254:	683a      	ldr	r2, [r7, #0]
 8001256:	429a      	cmp	r2, r3
 8001258:	d21e      	bcs.n	8001298 <HAL_RCC_ClockConfig+0x19c>
  {
    /* Program the new number of wait states to the LATENCY bits in the FLASH_ACR register */
    __HAL_FLASH_SET_LATENCY(FLatency);
 800125a:	4b24      	ldr	r3, [pc, #144]	@ (80012ec <HAL_RCC_ClockConfig+0x1f0>)
 800125c:	681b      	ldr	r3, [r3, #0]
 800125e:	2207      	movs	r2, #7
 8001260:	4393      	bics	r3, r2
 8001262:	0019      	movs	r1, r3
 8001264:	4b21      	ldr	r3, [pc, #132]	@ (80012ec <HAL_RCC_ClockConfig+0x1f0>)
 8001266:	683a      	ldr	r2, [r7, #0]
 8001268:	430a      	orrs	r2, r1
 800126a:	601a      	str	r2, [r3, #0]

    /* Check that the new number of wait states is taken into account to access the Flash
    memory by polling the FLASH_ACR register */
    tickstart = HAL_GetTick();
 800126c:	f7ff f96e 	bl	800054c <HAL_GetTick>
 8001270:	0003      	movs	r3, r0
 8001272:	60fb      	str	r3, [r7, #12]

    while ((FLASH->ACR & FLASH_ACR_LATENCY) != FLatency)
 8001274:	e009      	b.n	800128a <HAL_RCC_ClockConfig+0x18e>
    {
      if ((HAL_GetTick() - tickstart) > CLOCKSWITCH_TIMEOUT_VALUE)
 8001276:	f7ff f969 	bl	800054c <HAL_GetTick>
 800127a:	0002      	movs	r2, r0
 800127c:	68fb      	ldr	r3, [r7, #12]
 800127e:	1ad3      	subs	r3, r2, r3
 8001280:	4a1b      	ldr	r2, [pc, #108]	@ (80012f0 <HAL_RCC_ClockConfig+0x1f4>)
 8001282:	4293      	cmp	r3, r2
 8001284:	d901      	bls.n	800128a <HAL_RCC_ClockConfig+0x18e>
      {
        return HAL_TIMEOUT;
 8001286:	2303      	movs	r3, #3
 8001288:	e02c      	b.n	80012e4 <HAL_RCC_ClockConfig+0x1e8>
    while ((FLASH->ACR & FLASH_ACR_LATENCY) != FLatency)
 800128a:	4b18      	ldr	r3, [pc, #96]	@ (80012ec <HAL_RCC_ClockConfig+0x1f0>)
 800128c:	681b      	ldr	r3, [r3, #0]
 800128e:	2207      	movs	r2, #7
 8001290:	4013      	ands	r3, r2
 8001292:	683a      	ldr	r2, [r7, #0]
 8001294:	429a      	cmp	r2, r3
 8001296:	d1ee      	bne.n	8001276 <HAL_RCC_ClockConfig+0x17a>
      }
    }
  }

  /*-------------------------- PCLK1 Configuration ---------------------------*/
  if (((RCC_ClkInitStruct->ClockType) & RCC_CLOCKTYPE_PCLK1) == RCC_CLOCKTYPE_PCLK1)
 8001298:	687b      	ldr	r3, [r7, #4]
 800129a:	681b      	ldr	r3, [r3, #0]
 800129c:	2204      	movs	r2, #4
 800129e:	4013      	ands	r3, r2
 80012a0:	d009      	beq.n	80012b6 <HAL_RCC_ClockConfig+0x1ba>
  {
    assert_param(IS_RCC_PCLK(RCC_ClkInitStruct->APB1CLKDivider));
    MODIFY_REG(RCC->CFGR, RCC_CFGR_PPRE, RCC_ClkInitStruct->APB1CLKDivider);
 80012a2:	4b14      	ldr	r3, [pc, #80]	@ (80012f4 <HAL_RCC_ClockConfig+0x1f8>)
 80012a4:	689b      	ldr	r3, [r3, #8]
 80012a6:	4a15      	ldr	r2, [pc, #84]	@ (80012fc <HAL_RCC_ClockConfig+0x200>)
 80012a8:	4013      	ands	r3, r2
 80012aa:	0019      	movs	r1, r3
 80012ac:	687b      	ldr	r3, [r7, #4]
 80012ae:	68da      	ldr	r2, [r3, #12]
 80012b0:	4b10      	ldr	r3, [pc, #64]	@ (80012f4 <HAL_RCC_ClockConfig+0x1f8>)
 80012b2:	430a      	orrs	r2, r1
 80012b4:	609a      	str	r2, [r3, #8]
  }

  /* Update the SystemCoreClock global variable */
  SystemCoreClock = (HAL_RCC_GetSysClockFreq() >> ((AHBPrescTable[(RCC->CFGR & RCC_CFGR_HPRE) >> RCC_CFGR_HPRE_Pos]) & 0x1FU));
 80012b6:	f000 f829 	bl	800130c <HAL_RCC_GetSysClockFreq>
 80012ba:	0001      	movs	r1, r0
 80012bc:	4b0d      	ldr	r3, [pc, #52]	@ (80012f4 <HAL_RCC_ClockConfig+0x1f8>)
 80012be:	689b      	ldr	r3, [r3, #8]
 80012c0:	0a1b      	lsrs	r3, r3, #8
 80012c2:	220f      	movs	r2, #15
 80012c4:	401a      	ands	r2, r3
 80012c6:	4b0e      	ldr	r3, [pc, #56]	@ (8001300 <HAL_RCC_ClockConfig+0x204>)
 80012c8:	0092      	lsls	r2, r2, #2
 80012ca:	58d3      	ldr	r3, [r2, r3]
 80012cc:	221f      	movs	r2, #31
 80012ce:	4013      	ands	r3, r2
 80012d0:	000a      	movs	r2, r1
 80012d2:	40da      	lsrs	r2, r3
 80012d4:	4b0b      	ldr	r3, [pc, #44]	@ (8001304 <HAL_RCC_ClockConfig+0x208>)
 80012d6:	601a      	str	r2, [r3, #0]

  /* Configure the source of time base considering new system clocks settings*/
  return HAL_InitTick(uwTickPrio);
 80012d8:	4b0b      	ldr	r3, [pc, #44]	@ (8001308 <HAL_RCC_ClockConfig+0x20c>)
 80012da:	681b      	ldr	r3, [r3, #0]
 80012dc:	0018      	movs	r0, r3
 80012de:	f7ff f8d9 	bl	8000494 <HAL_InitTick>
 80012e2:	0003      	movs	r3, r0
}
 80012e4:	0018      	movs	r0, r3
 80012e6:	46bd      	mov	sp, r7
 80012e8:	b004      	add	sp, #16
 80012ea:	bd80      	pop	{r7, pc}
 80012ec:	40022000 	.word	0x40022000
 80012f0:	00001388 	.word	0x00001388
 80012f4:	40021000 	.word	0x40021000
 80012f8:	fffff0ff 	.word	0xfffff0ff
 80012fc:	ffff8fff 	.word	0xffff8fff
 8001300:	08001480 	.word	0x08001480
 8001304:	20000000 	.word	0x20000000
 8001308:	20000004 	.word	0x20000004

0800130c <HAL_RCC_GetSysClockFreq>:
  *
  *
  * @retval SYSCLK frequency
  */
uint32_t HAL_RCC_GetSysClockFreq(void)
{
 800130c:	b580      	push	{r7, lr}
 800130e:	b086      	sub	sp, #24
 8001310:	af00      	add	r7, sp, #0
  uint32_t pllvco, pllsource, pllr, pllm, hsidiv;
  uint32_t sysclockfreq;

  if (__HAL_RCC_GET_SYSCLK_SOURCE() == RCC_SYSCLKSOURCE_STATUS_HSI)
 8001312:	4b3c      	ldr	r3, [pc, #240]	@ (8001404 <HAL_RCC_GetSysClockFreq+0xf8>)
 8001314:	689b      	ldr	r3, [r3, #8]
 8001316:	2238      	movs	r2, #56	@ 0x38
 8001318:	4013      	ands	r3, r2
 800131a:	d10f      	bne.n	800133c <HAL_RCC_GetSysClockFreq+0x30>
  {
    /* HSISYS can be derived for HSI16 */
    hsidiv = (1UL << ((READ_BIT(RCC->CR, RCC_CR_HSIDIV)) >> RCC_CR_HSIDIV_Pos));
 800131c:	4b39      	ldr	r3, [pc, #228]	@ (8001404 <HAL_RCC_GetSysClockFreq+0xf8>)
 800131e:	681b      	ldr	r3, [r3, #0]
 8001320:	0adb      	lsrs	r3, r3, #11
 8001322:	2207      	movs	r2, #7
 8001324:	4013      	ands	r3, r2
 8001326:	2201      	movs	r2, #1
 8001328:	409a      	lsls	r2, r3
 800132a:	0013      	movs	r3, r2
 800132c:	603b      	str	r3, [r7, #0]

    /* HSI used as system clock source */
    sysclockfreq = (HSI_VALUE / hsidiv);
 800132e:	6839      	ldr	r1, [r7, #0]
 8001330:	4835      	ldr	r0, [pc, #212]	@ (8001408 <HAL_RCC_GetSysClockFreq+0xfc>)
 8001332:	f7fe fee7 	bl	8000104 <__udivsi3>
 8001336:	0003      	movs	r3, r0
 8001338:	613b      	str	r3, [r7, #16]
 800133a:	e05d      	b.n	80013f8 <HAL_RCC_GetSysClockFreq+0xec>
  }
  else if (__HAL_RCC_GET_SYSCLK_SOURCE() == RCC_SYSCLKSOURCE_STATUS_HSE)
 800133c:	4b31      	ldr	r3, [pc, #196]	@ (8001404 <HAL_RCC_GetSysClockFreq+0xf8>)
 800133e:	689b      	ldr	r3, [r3, #8]
 8001340:	2238      	movs	r2, #56	@ 0x38
 8001342:	4013      	ands	r3, r2
 8001344:	2b08      	cmp	r3, #8
 8001346:	d102      	bne.n	800134e <HAL_RCC_GetSysClockFreq+0x42>
  {
    /* HSE used as system clock source */
    sysclockfreq = HSE_VALUE;
 8001348:	4b30      	ldr	r3, [pc, #192]	@ (800140c <HAL_RCC_GetSysClockFreq+0x100>)
 800134a:	613b      	str	r3, [r7, #16]
 800134c:	e054      	b.n	80013f8 <HAL_RCC_GetSysClockFreq+0xec>
  }
  else if (__HAL_RCC_GET_SYSCLK_SOURCE() == RCC_SYSCLKSOURCE_STATUS_PLLCLK)
 800134e:	4b2d      	ldr	r3, [pc, #180]	@ (8001404 <HAL_RCC_GetSysClockFreq+0xf8>)
 8001350:	689b      	ldr	r3, [r3, #8]
 8001352:	2238      	movs	r2, #56	@ 0x38
 8001354:	4013      	ands	r3, r2
 8001356:	2b10      	cmp	r3, #16
 8001358:	d138      	bne.n	80013cc <HAL_RCC_GetSysClockFreq+0xc0>
    /* PLL used as system clock  source */

    /* PLL_VCO = ((HSE_VALUE or HSI_VALUE)/ PLLM) * PLLN
    SYSCLK = PLL_VCO / PLLR
    */
    pllsource = (RCC->PLLCFGR & RCC_PLLCFGR_PLLSRC);
 800135a:	4b2a      	ldr	r3, [pc, #168]	@ (8001404 <HAL_RCC_GetSysClockFreq+0xf8>)
 800135c:	68db      	ldr	r3, [r3, #12]
 800135e:	2203      	movs	r2, #3
 8001360:	4013      	ands	r3, r2
 8001362:	60fb      	str	r3, [r7, #12]
    pllm = ((RCC->PLLCFGR & RCC_PLLCFGR_PLLM) >> RCC_PLLCFGR_PLLM_Pos) + 1U ;
 8001364:	4b27      	ldr	r3, [pc, #156]	@ (8001404 <HAL_RCC_GetSysClockFreq+0xf8>)
 8001366:	68db      	ldr	r3, [r3, #12]
 8001368:	091b      	lsrs	r3, r3, #4
 800136a:	2207      	movs	r2, #7
 800136c:	4013      	ands	r3, r2
 800136e:	3301      	adds	r3, #1
 8001370:	60bb      	str	r3, [r7, #8]

    switch (pllsource)
 8001372:	68fb      	ldr	r3, [r7, #12]
 8001374:	2b03      	cmp	r3, #3
 8001376:	d10d      	bne.n	8001394 <HAL_RCC_GetSysClockFreq+0x88>
    {
      case RCC_PLLSOURCE_HSE:  /* HSE used as PLL clock source */
        pllvco = (HSE_VALUE / pllm) * ((RCC->PLLCFGR & RCC_PLLCFGR_PLLN) >> RCC_PLLCFGR_PLLN_Pos);
 8001378:	68b9      	ldr	r1, [r7, #8]
 800137a:	4824      	ldr	r0, [pc, #144]	@ (800140c <HAL_RCC_GetSysClockFreq+0x100>)
 800137c:	f7fe fec2 	bl	8000104 <__udivsi3>
 8001380:	0003      	movs	r3, r0
 8001382:	0019      	movs	r1, r3
 8001384:	4b1f      	ldr	r3, [pc, #124]	@ (8001404 <HAL_RCC_GetSysClockFreq+0xf8>)
 8001386:	68db      	ldr	r3, [r3, #12]
 8001388:	0a1b      	lsrs	r3, r3, #8
 800138a:	227f      	movs	r2, #127	@ 0x7f
 800138c:	4013      	ands	r3, r2
 800138e:	434b      	muls	r3, r1
 8001390:	617b      	str	r3, [r7, #20]
        break;
 8001392:	e00d      	b.n	80013b0 <HAL_RCC_GetSysClockFreq+0xa4>

      case RCC_PLLSOURCE_HSI:  /* HSI16 used as PLL clock source */
      default:                 /* HSI16 used as PLL clock source */
        pllvco = (HSI_VALUE / pllm) * ((RCC->PLLCFGR & RCC_PLLCFGR_PLLN) >> RCC_PLLCFGR_PLLN_Pos) ;
 8001394:	68b9      	ldr	r1, [r7, #8]
 8001396:	481c      	ldr	r0, [pc, #112]	@ (8001408 <HAL_RCC_GetSysClockFreq+0xfc>)
 8001398:	f7fe feb4 	bl	8000104 <__udivsi3>
 800139c:	0003      	movs	r3, r0
 800139e:	0019      	movs	r1, r3
 80013a0:	4b18      	ldr	r3, [pc, #96]	@ (8001404 <HAL_RCC_GetSysClockFreq+0xf8>)
 80013a2:	68db      	ldr	r3, [r3, #12]
 80013a4:	0a1b      	lsrs	r3, r3, #8
 80013a6:	227f      	movs	r2, #127	@ 0x7f
 80013a8:	4013      	ands	r3, r2
 80013aa:	434b      	muls	r3, r1
 80013ac:	617b      	str	r3, [r7, #20]
        break;
 80013ae:	46c0      	nop			@ (mov r8, r8)
    }
    pllr = (((RCC->PLLCFGR & RCC_PLLCFGR_PLLR) >> RCC_PLLCFGR_PLLR_Pos) + 1U);
 80013b0:	4b14      	ldr	r3, [pc, #80]	@ (8001404 <HAL_RCC_GetSysClockFreq+0xf8>)
 80013b2:	68db      	ldr	r3, [r3, #12]
 80013b4:	0f5b      	lsrs	r3, r3, #29
 80013b6:	2207      	movs	r2, #7
 80013b8:	4013      	ands	r3, r2
 80013ba:	3301      	adds	r3, #1
 80013bc:	607b      	str	r3, [r7, #4]
    sysclockfreq = pllvco / pllr;
 80013be:	6879      	ldr	r1, [r7, #4]
 80013c0:	6978      	ldr	r0, [r7, #20]
 80013c2:	f7fe fe9f 	bl	8000104 <__udivsi3>
 80013c6:	0003      	movs	r3, r0
 80013c8:	613b      	str	r3, [r7, #16]
 80013ca:	e015      	b.n	80013f8 <HAL_RCC_GetSysClockFreq+0xec>
  }
  else if (__HAL_RCC_GET_SYSCLK_SOURCE() == RCC_SYSCLKSOURCE_STATUS_LSE)
 80013cc:	4b0d      	ldr	r3, [pc, #52]	@ (8001404 <HAL_RCC_GetSysClockFreq+0xf8>)
 80013ce:	689b      	ldr	r3, [r3, #8]
 80013d0:	2238      	movs	r2, #56	@ 0x38
 80013d2:	4013      	ands	r3, r2
 80013d4:	2b20      	cmp	r3, #32
 80013d6:	d103      	bne.n	80013e0 <HAL_RCC_GetSysClockFreq+0xd4>
  {
    /* LSE used as system clock source */
    sysclockfreq = LSE_VALUE;
 80013d8:	2380      	movs	r3, #128	@ 0x80
 80013da:	021b      	lsls	r3, r3, #8
 80013dc:	613b      	str	r3, [r7, #16]
 80013de:	e00b      	b.n	80013f8 <HAL_RCC_GetSysClockFreq+0xec>
  }
  else if (__HAL_RCC_GET_SYSCLK_SOURCE() == RCC_SYSCLKSOURCE_STATUS_LSI)
 80013e0:	4b08      	ldr	r3, [pc, #32]	@ (8001404 <HAL_RCC_GetSysClockFreq+0xf8>)
 80013e2:	689b      	ldr	r3, [r3, #8]
 80013e4:	2238      	movs	r2, #56	@ 0x38
 80013e6:	4013      	ands	r3, r2
 80013e8:	2b18      	cmp	r3, #24
 80013ea:	d103      	bne.n	80013f4 <HAL_RCC_GetSysClockFreq+0xe8>
  {
    /* LSI used as system clock source */
    sysclockfreq = LSI_VALUE;
 80013ec:	23fa      	movs	r3, #250	@ 0xfa
 80013ee:	01db      	lsls	r3, r3, #7
 80013f0:	613b      	str	r3, [r7, #16]
 80013f2:	e001      	b.n	80013f8 <HAL_RCC_GetSysClockFreq+0xec>
  }
  else
  {
    sysclockfreq = 0U;
 80013f4:	2300      	movs	r3, #0
 80013f6:	613b      	str	r3, [r7, #16]
  }

  return sysclockfreq;
 80013f8:	693b      	ldr	r3, [r7, #16]
}
 80013fa:	0018      	movs	r0, r3
 80013fc:	46bd      	mov	sp, r7
 80013fe:	b006      	add	sp, #24
 8001400:	bd80      	pop	{r7, pc}
 8001402:	46c0      	nop			@ (mov r8, r8)
 8001404:	40021000 	.word	0x40021000
 8001408:	00f42400 	.word	0x00f42400
 800140c:	007a1200 	.word	0x007a1200

08001410 <memset>:
 8001410:	0003      	movs	r3, r0
 8001412:	1882      	adds	r2, r0, r2
 8001414:	4293      	cmp	r3, r2
 8001416:	d100      	bne.n	800141a <memset+0xa>
 8001418:	4770      	bx	lr
 800141a:	7019      	strb	r1, [r3, #0]
 800141c:	3301      	adds	r3, #1
 800141e:	e7f9      	b.n	8001414 <memset+0x4>

08001420 <__libc_init_array>:
 8001420:	b570      	push	{r4, r5, r6, lr}
 8001422:	2600      	movs	r6, #0
 8001424:	4c0c      	ldr	r4, [pc, #48]	@ (8001458 <__libc_init_array+0x38>)
 8001426:	4d0d      	ldr	r5, [pc, #52]	@ (800145c <__libc_init_array+0x3c>)
 8001428:	1b64      	subs	r4, r4, r5
 800142a:	10a4      	asrs	r4, r4, #2
 800142c:	42a6      	cmp	r6, r4
 800142e:	d109      	bne.n	8001444 <__libc_init_array+0x24>
 8001430:	2600      	movs	r6, #0
 8001432:	f000 f819 	bl	8001468 <_init>
 8001436:	4c0a      	ldr	r4, [pc, #40]	@ (8001460 <__libc_init_array+0x40>)
 8001438:	4d0a      	ldr	r5, [pc, #40]	@ (8001464 <__libc_init_array+0x44>)
 800143a:	1b64      	subs	r4, r4, r5
 800143c:	10a4      	asrs	r4, r4, #2
 800143e:	42a6      	cmp	r6, r4
 8001440:	d105      	bne.n	800144e <__libc_init_array+0x2e>
 8001442:	bd70      	pop	{r4, r5, r6, pc}
 8001444:	00b3      	lsls	r3, r6, #2
 8001446:	58eb      	ldr	r3, [r5, r3]
 8001448:	4798      	blx	r3
 800144a:	3601      	adds	r6, #1
 800144c:	e7ee      	b.n	800142c <__libc_init_array+0xc>
 800144e:	00b3      	lsls	r3, r6, #2
 8001450:	58eb      	ldr	r3, [r5, r3]
 8001452:	4798      	blx	r3
 8001454:	3601      	adds	r6, #1
 8001456:	e7f2      	b.n	800143e <__libc_init_array+0x1e>
 8001458:	080014c0 	.word	0x080014c0
 800145c:	080014c0 	.word	0x080014c0
 8001460:	080014c4 	.word	0x080014c4
 8001464:	080014c0 	.word	0x080014c0

08001468 <_init>:
 8001468:	b5f8      	push	{r3, r4, r5, r6, r7, lr}
 800146a:	46c0      	nop			@ (mov r8, r8)
 800146c:	bcf8      	pop	{r3, r4, r5, r6, r7}
 800146e:	bc08      	pop	{r3}
 8001470:	469e      	mov	lr, r3
 8001472:	4770      	bx	lr

08001474 <_fini>:
 8001474:	b5f8      	push	{r3, r4, r5, r6, r7, lr}
 8001476:	46c0      	nop			@ (mov r8, r8)
 8001478:	bcf8      	pop	{r3, r4, r5, r6, r7}
 800147a:	bc08      	pop	{r3}
 800147c:	469e      	mov	lr, r3
 800147e:	4770      	bx	lr
